	.file	"Matrica.cpp"
	.section	.rodata
	.type	_ZStL19piecewise_construct, @object
	.size	_ZStL19piecewise_construct, 1
_ZStL19piecewise_construct:
	.zero	1
	.section	.text._ZNSt9exceptionC2Ev,"axG",@progbits,_ZNSt9exceptionC5Ev,comdat
	.align 2
	.weak	_ZNSt9exceptionC2Ev
	.type	_ZNSt9exceptionC2Ev, @function
_ZNSt9exceptionC2Ev:
.LFB307:
	.cfi_startproc
	pushq	%rbp
	.cfi_def_cfa_offset 16
	.cfi_offset 6, -16
	movq	%rsp, %rbp
	.cfi_def_cfa_register 6
	movq	%rdi, -8(%rbp)
	leaq	16+_ZTVSt9exception(%rip), %rdx
	movq	-8(%rbp), %rax
	movq	%rdx, (%rax)
	nop
	popq	%rbp
	.cfi_def_cfa 7, 8
	ret
	.cfi_endproc
.LFE307:
	.size	_ZNSt9exceptionC2Ev, .-_ZNSt9exceptionC2Ev
	.weak	_ZNSt9exceptionC1Ev
	.set	_ZNSt9exceptionC1Ev,_ZNSt9exceptionC2Ev
	.section	.text._ZnwmPv,"axG",@progbits,_ZnwmPv,comdat
	.weak	_ZnwmPv
	.type	_ZnwmPv, @function
_ZnwmPv:
.LFB357:
	.cfi_startproc
	pushq	%rbp
	.cfi_def_cfa_offset 16
	.cfi_offset 6, -16
	movq	%rsp, %rbp
	.cfi_def_cfa_register 6
	movq	%rdi, -8(%rbp)
	movq	%rsi, -16(%rbp)
	movq	-16(%rbp), %rax
	popq	%rbp
	.cfi_def_cfa 7, 8
	ret
	.cfi_endproc
.LFE357:
	.size	_ZnwmPv, .-_ZnwmPv
	.section	.text._ZdlPvS_,"axG",@progbits,_ZdlPvS_,comdat
	.weak	_ZdlPvS_
	.type	_ZdlPvS_, @function
_ZdlPvS_:
.LFB359:
	.cfi_startproc
	pushq	%rbp
	.cfi_def_cfa_offset 16
	.cfi_offset 6, -16
	movq	%rsp, %rbp
	.cfi_def_cfa_register 6
	movq	%rdi, -8(%rbp)
	movq	%rsi, -16(%rbp)
	nop
	popq	%rbp
	.cfi_def_cfa 7, 8
	ret
	.cfi_endproc
.LFE359:
	.size	_ZdlPvS_, .-_ZdlPvS_
	.section	.text._ZSt3absd,"axG",@progbits,_ZSt3absd,comdat
	.weak	_ZSt3absd
	.type	_ZSt3absd, @function
_ZSt3absd:
.LFB1240:
	.cfi_startproc
	pushq	%rbp
	.cfi_def_cfa_offset 16
	.cfi_offset 6, -16
	movq	%rsp, %rbp
	.cfi_def_cfa_register 6
	movsd	%xmm0, -8(%rbp)
	movsd	-8(%rbp), %xmm1
	movq	.LC0(%rip), %xmm0
	andpd	%xmm1, %xmm0
	popq	%rbp
	.cfi_def_cfa 7, 8
	ret
	.cfi_endproc
.LFE1240:
	.size	_ZSt3absd, .-_ZSt3absd
	.section	.text._ZSt21__valarray_get_memorym,"axG",@progbits,_ZSt21__valarray_get_memorym,comdat
	.weak	_ZSt21__valarray_get_memorym
	.type	_ZSt21__valarray_get_memorym, @function
_ZSt21__valarray_get_memorym:
.LFB1993:
	.cfi_startproc
	pushq	%rbp
	.cfi_def_cfa_offset 16
	.cfi_offset 6, -16
	movq	%rsp, %rbp
	.cfi_def_cfa_register 6
	subq	$16, %rsp
	movq	%rdi, -8(%rbp)
	movq	-8(%rbp), %rax
	movq	%rax, %rdi
	call	_Znwm@PLT
	leave
	.cfi_def_cfa 7, 8
	ret
	.cfi_endproc
.LFE1993:
	.size	_ZSt21__valarray_get_memorym, .-_ZSt21__valarray_get_memorym
	.section	.text._ZSt25__valarray_release_memoryPv,"axG",@progbits,_ZSt25__valarray_release_memoryPv,comdat
	.weak	_ZSt25__valarray_release_memoryPv
	.type	_ZSt25__valarray_release_memoryPv, @function
_ZSt25__valarray_release_memoryPv:
.LFB1995:
	.cfi_startproc
	pushq	%rbp
	.cfi_def_cfa_offset 16
	.cfi_offset 6, -16
	movq	%rsp, %rbp
	.cfi_def_cfa_register 6
	subq	$16, %rsp
	movq	%rdi, -8(%rbp)
	movq	-8(%rbp), %rax
	movq	%rax, %rdi
	call	_ZdlPv@PLT
	nop
	leave
	.cfi_def_cfa 7, 8
	ret
	.cfi_endproc
.LFE1995:
	.size	_ZSt25__valarray_release_memoryPv, .-_ZSt25__valarray_release_memoryPv
	.local	_ZStL8__ioinit
	.comm	_ZStL8__ioinit,1,1
	.text
	.align 2
	.globl	_ZN17Matrica_exceptionC2Ev
	.type	_ZN17Matrica_exceptionC2Ev, @function
_ZN17Matrica_exceptionC2Ev:
.LFB3365:
	.cfi_startproc
	pushq	%rbp
	.cfi_def_cfa_offset 16
	.cfi_offset 6, -16
	movq	%rsp, %rbp
	.cfi_def_cfa_register 6
	subq	$16, %rsp
	movq	%rdi, -8(%rbp)
	movq	-8(%rbp), %rax
	movq	%rax, %rdi
	call	_ZNSt9exceptionC2Ev
	leaq	16+_ZTV17Matrica_exception(%rip), %rdx
	movq	-8(%rbp), %rax
	movq	%rdx, (%rax)
	movq	-8(%rbp), %rax
	addq	$8, %rax
	movq	%rax, %rdi
	call	_ZNSt7__cxx1112basic_stringIcSt11char_traitsIcESaIcEEC1Ev@PLT
	nop
	leave
	.cfi_def_cfa 7, 8
	ret
	.cfi_endproc
.LFE3365:
	.size	_ZN17Matrica_exceptionC2Ev, .-_ZN17Matrica_exceptionC2Ev
	.globl	_ZN17Matrica_exceptionC1Ev
	.set	_ZN17Matrica_exceptionC1Ev,_ZN17Matrica_exceptionC2Ev
	.align 2
	.globl	_ZN17Matrica_exceptionC2ENSt7__cxx1112basic_stringIcSt11char_traitsIcESaIcEEE
	.type	_ZN17Matrica_exceptionC2ENSt7__cxx1112basic_stringIcSt11char_traitsIcESaIcEEE, @function
_ZN17Matrica_exceptionC2ENSt7__cxx1112basic_stringIcSt11char_traitsIcESaIcEEE:
.LFB3368:
	.cfi_startproc
	.cfi_personality 0x9b,DW.ref.__gxx_personality_v0
	.cfi_lsda 0x1b,.LLSDA3368
	pushq	%rbp
	.cfi_def_cfa_offset 16
	.cfi_offset 6, -16
	movq	%rsp, %rbp
	.cfi_def_cfa_register 6
	pushq	%rbx
	subq	$24, %rsp
	.cfi_offset 3, -24
	movq	%rdi, -24(%rbp)
	movq	%rsi, -32(%rbp)
	movq	-24(%rbp), %rax
	movq	%rax, %rdi
	call	_ZNSt9exceptionC2Ev
	leaq	16+_ZTV17Matrica_exception(%rip), %rdx
	movq	-24(%rbp), %rax
	movq	%rdx, (%rax)
	movq	-24(%rbp), %rax
	leaq	8(%rax), %rdx
	movq	-32(%rbp), %rax
	movq	%rax, %rsi
	movq	%rdx, %rdi
.LEHB0:
	call	_ZNSt7__cxx1112basic_stringIcSt11char_traitsIcESaIcEEC1ERKS4_@PLT
.LEHE0:
	jmp	.L14
.L13:
	movq	%rax, %rbx
	movq	-24(%rbp), %rax
	movq	%rax, %rdi
	call	_ZNSt9exceptionD2Ev@PLT
	movq	%rbx, %rax
	movq	%rax, %rdi
.LEHB1:
	call	_Unwind_Resume@PLT
.LEHE1:
.L14:
	addq	$24, %rsp
	popq	%rbx
	popq	%rbp
	.cfi_def_cfa 7, 8
	ret
	.cfi_endproc
.LFE3368:
	.globl	__gxx_personality_v0
	.section	.gcc_except_table,"a",@progbits
.LLSDA3368:
	.byte	0xff
	.byte	0xff
	.byte	0x1
	.uleb128 .LLSDACSE3368-.LLSDACSB3368
.LLSDACSB3368:
	.uleb128 .LEHB0-.LFB3368
	.uleb128 .LEHE0-.LEHB0
	.uleb128 .L13-.LFB3368
	.uleb128 0
	.uleb128 .LEHB1-.LFB3368
	.uleb128 .LEHE1-.LEHB1
	.uleb128 0
	.uleb128 0
.LLSDACSE3368:
	.text
	.size	_ZN17Matrica_exceptionC2ENSt7__cxx1112basic_stringIcSt11char_traitsIcESaIcEEE, .-_ZN17Matrica_exceptionC2ENSt7__cxx1112basic_stringIcSt11char_traitsIcESaIcEEE
	.globl	_ZN17Matrica_exceptionC1ENSt7__cxx1112basic_stringIcSt11char_traitsIcESaIcEEE
	.set	_ZN17Matrica_exceptionC1ENSt7__cxx1112basic_stringIcSt11char_traitsIcESaIcEEE,_ZN17Matrica_exceptionC2ENSt7__cxx1112basic_stringIcSt11char_traitsIcESaIcEEE
	.align 2
	.globl	_ZN17Matrica_exceptionD2Ev
	.type	_ZN17Matrica_exceptionD2Ev, @function
_ZN17Matrica_exceptionD2Ev:
.LFB3371:
	.cfi_startproc
	pushq	%rbp
	.cfi_def_cfa_offset 16
	.cfi_offset 6, -16
	movq	%rsp, %rbp
	.cfi_def_cfa_register 6
	subq	$16, %rsp
	movq	%rdi, -8(%rbp)
	leaq	16+_ZTV17Matrica_exception(%rip), %rdx
	movq	-8(%rbp), %rax
	movq	%rdx, (%rax)
	movq	-8(%rbp), %rax
	addq	$8, %rax
	movq	%rax, %rdi
	call	_ZNSt7__cxx1112basic_stringIcSt11char_traitsIcESaIcEED1Ev@PLT
	movq	-8(%rbp), %rax
	movq	%rax, %rdi
	call	_ZNSt9exceptionD2Ev@PLT
	nop
	leave
	.cfi_def_cfa 7, 8
	ret
	.cfi_endproc
.LFE3371:
	.size	_ZN17Matrica_exceptionD2Ev, .-_ZN17Matrica_exceptionD2Ev
	.globl	_ZN17Matrica_exceptionD1Ev
	.set	_ZN17Matrica_exceptionD1Ev,_ZN17Matrica_exceptionD2Ev
	.align 2
	.globl	_ZN17Matrica_exceptionD0Ev
	.type	_ZN17Matrica_exceptionD0Ev, @function
_ZN17Matrica_exceptionD0Ev:
.LFB3373:
	.cfi_startproc
	pushq	%rbp
	.cfi_def_cfa_offset 16
	.cfi_offset 6, -16
	movq	%rsp, %rbp
	.cfi_def_cfa_register 6
	subq	$16, %rsp
	movq	%rdi, -8(%rbp)
	movq	-8(%rbp), %rax
	movq	%rax, %rdi
	call	_ZN17Matrica_exceptionD1Ev
	movq	-8(%rbp), %rax
	movl	$40, %esi
	movq	%rax, %rdi
	call	_ZdlPvm@PLT
	leave
	.cfi_def_cfa 7, 8
	ret
	.cfi_endproc
.LFE3373:
	.size	_ZN17Matrica_exceptionD0Ev, .-_ZN17Matrica_exceptionD0Ev
	.align 2
	.globl	_ZNK17Matrica_exception4whatEv
	.type	_ZNK17Matrica_exception4whatEv, @function
_ZNK17Matrica_exception4whatEv:
.LFB3374:
	.cfi_startproc
	pushq	%rbp
	.cfi_def_cfa_offset 16
	.cfi_offset 6, -16
	movq	%rsp, %rbp
	.cfi_def_cfa_register 6
	subq	$16, %rsp
	movq	%rdi, -8(%rbp)
	movq	-8(%rbp), %rax
	addq	$8, %rax
	movq	%rax, %rdi
	call	_ZNKSt7__cxx1112basic_stringIcSt11char_traitsIcESaIcEE5c_strEv@PLT
	leave
	.cfi_def_cfa 7, 8
	ret
	.cfi_endproc
.LFE3374:
	.size	_ZNK17Matrica_exception4whatEv, .-_ZNK17Matrica_exception4whatEv
	.section	.text._ZNSt9exceptionC2ERKS_,"axG",@progbits,_ZNSt9exceptionC5ERKS_,comdat
	.align 2
	.weak	_ZNSt9exceptionC2ERKS_
	.type	_ZNSt9exceptionC2ERKS_, @function
_ZNSt9exceptionC2ERKS_:
.LFB3419:
	.cfi_startproc
	pushq	%rbp
	.cfi_def_cfa_offset 16
	.cfi_offset 6, -16
	movq	%rsp, %rbp
	.cfi_def_cfa_register 6
	movq	%rdi, -8(%rbp)
	movq	%rsi, -16(%rbp)
	leaq	16+_ZTVSt9exception(%rip), %rdx
	movq	-8(%rbp), %rax
	movq	%rdx, (%rax)
	nop
	popq	%rbp
	.cfi_def_cfa 7, 8
	ret
	.cfi_endproc
.LFE3419:
	.size	_ZNSt9exceptionC2ERKS_, .-_ZNSt9exceptionC2ERKS_
	.weak	_ZNSt9exceptionC1ERKS_
	.set	_ZNSt9exceptionC1ERKS_,_ZNSt9exceptionC2ERKS_
	.section	.rodata
.LC1:
	.string	"Test"
.LC2:
	.string	"test.txt"
	.text
	.globl	_Z4testv
	.type	_Z4testv, @function
_Z4testv:
.LFB3417:
	.cfi_startproc
	.cfi_personality 0x9b,DW.ref.__gxx_personality_v0
	.cfi_lsda 0x1b,.LLSDA3417
	pushq	%rbp
	.cfi_def_cfa_offset 16
	.cfi_offset 6, -16
	movq	%rsp, %rbp
	.cfi_def_cfa_register 6
	pushq	%r12
	pushq	%rbx
	subq	$1040, %rsp
	.cfi_offset 12, -24
	.cfi_offset 3, -32
	leaq	.LC1(%rip), %rsi
	leaq	_ZSt4cout(%rip), %rdi
.LEHB2:
	call	_ZStlsISt11char_traitsIcEERSt13basic_ostreamIcT_ES5_PKc@PLT
	movq	%rax, %rdx
	movq	_ZSt4endlIcSt11char_traitsIcEERSt13basic_ostreamIT_T0_ES6_@GOTPCREL(%rip), %rax
	movq	%rax, %rsi
	movq	%rdx, %rdi
	call	_ZNSolsEPFRSoS_E@PLT
.LEHE2:
	leaq	-785(%rbp), %rax
	movq	%rax, %rdi
	call	_ZNSaIcEC1Ev@PLT
	leaq	-785(%rbp), %rdx
	leaq	-832(%rbp), %rax
	leaq	.LC2(%rip), %rsi
	movq	%rax, %rdi
.LEHB3:
	call	_ZNSt7__cxx1112basic_stringIcSt11char_traitsIcESaIcEEC1EPKcRKS3_@PLT
.LEHE3:
	leaq	-832(%rbp), %rdx
	leaq	-896(%rbp), %rax
	movq	%rdx, %rsi
	movq	%rax, %rdi
.LEHB4:
	call	_ZN7MatricaIdEC1ENSt7__cxx1112basic_stringIcSt11char_traitsIcESaIcEEE
.LEHE4:
	leaq	-832(%rbp), %rax
	movq	%rax, %rdi
	call	_ZNSt7__cxx1112basic_stringIcSt11char_traitsIcESaIcEED1Ev@PLT
	leaq	-785(%rbp), %rax
	movq	%rax, %rdi
	call	_ZNSaIcED1Ev@PLT
	leaq	-896(%rbp), %rax
	movq	%rax, %rdi
.LEHB5:
	call	_ZNK7MatricaIdE5ispisEv
	leaq	-960(%rbp), %rax
	leaq	-896(%rbp), %rdx
	movq	%rdx, %rsi
	movq	%rax, %rdi
	call	_ZNK7MatricaIdE1tEv
.LEHE5:
	leaq	-960(%rbp), %rax
	movq	%rax, %rdi
.LEHB6:
	call	_ZNK7MatricaIdE5ispisEv
	leaq	-784(%rbp), %rax
	leaq	-960(%rbp), %rcx
	movl	$2, %edx
	movq	%rcx, %rsi
	movq	%rax, %rdi
	call	_ZNK7MatricaIdEmlIiEES0_T_
.LEHE6:
	leaq	-784(%rbp), %rax
	movq	%rax, %rdi
.LEHB7:
	call	_ZNK7MatricaIdE5ispisEv
.LEHE7:
	leaq	-784(%rbp), %rax
	movq	%rax, %rdi
	call	_ZN7MatricaIdED1Ev
	leaq	-720(%rbp), %rax
	leaq	-960(%rbp), %rdx
	movl	$2, %esi
	movq	%rax, %rdi
.LEHB8:
	call	_ZmlIidE7MatricaIT0_ET_RKS2_
.LEHE8:
	leaq	-720(%rbp), %rax
	movq	%rax, %rdi
.LEHB9:
	call	_ZNK7MatricaIdE5ispisEv
.LEHE9:
	leaq	-720(%rbp), %rax
	movq	%rax, %rdi
	call	_ZN7MatricaIdED1Ev
	leaq	-656(%rbp), %rax
	leaq	-960(%rbp), %rcx
	movq	.LC3(%rip), %rdx
	movq	%rcx, %rsi
	movq	%rdx, -1048(%rbp)
	movsd	-1048(%rbp), %xmm0
	movq	%rax, %rdi
.LEHB10:
	call	_ZmlIddE7MatricaIT0_ET_RKS2_
.LEHE10:
	leaq	-592(%rbp), %rax
	movq	.LC3(%rip), %rcx
	leaq	-960(%rbp), %rdx
	movq	%rcx, -1048(%rbp)
	movsd	-1048(%rbp), %xmm0
	movq	%rdx, %rsi
	movq	%rax, %rdi
.LEHB11:
	call	_ZNK7MatricaIdEmlIdEES0_T_
.LEHE11:
	leaq	-656(%rbp), %rdx
	leaq	-592(%rbp), %rax
	movq	%rdx, %rsi
	movq	%rax, %rdi
.LEHB12:
	call	_ZNK7MatricaIdEeqERKS0_
	movzbl	%al, %eax
	movl	%eax, %esi
	leaq	_ZSt4cout(%rip), %rdi
	call	_ZNSolsEb@PLT
	movq	%rax, %rdx
	movq	_ZSt4endlIcSt11char_traitsIcEERSt13basic_ostreamIT_T0_ES6_@GOTPCREL(%rip), %rax
	movq	%rax, %rsi
	movq	%rdx, %rdi
	call	_ZNSolsEPFRSoS_E@PLT
.LEHE12:
	leaq	-592(%rbp), %rax
	movq	%rax, %rdi
	call	_ZN7MatricaIdED1Ev
	leaq	-656(%rbp), %rax
	movq	%rax, %rdi
	call	_ZN7MatricaIdED1Ev
	leaq	-528(%rbp), %rax
	leaq	-960(%rbp), %rdx
	leaq	-896(%rbp), %rcx
	movq	%rcx, %rsi
	movq	%rax, %rdi
.LEHB13:
	call	_ZNK7MatricaIdEmlERKS0_
.LEHE13:
	leaq	-528(%rbp), %rax
	movq	%rax, %rdi
.LEHB14:
	call	_ZNK7MatricaIdE5ispisEv
.LEHE14:
	leaq	-528(%rbp), %rax
	movq	%rax, %rdi
	call	_ZN7MatricaIdED1Ev
	leaq	-400(%rbp), %rax
	movl	$3, %esi
	movq	%rax, %rdi
.LEHB15:
	call	_ZN7MatricaIdE9jedinicnaEi
.LEHE15:
	leaq	-336(%rbp), %rax
	movl	$3, %esi
	movq	%rax, %rdi
.LEHB16:
	call	_ZN7MatricaIdE9jedinicnaEi
.LEHE16:
	leaq	-464(%rbp), %rax
	leaq	-400(%rbp), %rdx
	leaq	-336(%rbp), %rcx
	movq	%rcx, %rsi
	movq	%rax, %rdi
.LEHB17:
	call	_ZNK7MatricaIdEmlERKS0_
.LEHE17:
	leaq	-464(%rbp), %rax
	movq	%rax, %rdi
.LEHB18:
	call	_ZNK7MatricaIdE5ispisEv
.LEHE18:
	leaq	-464(%rbp), %rax
	movq	%rax, %rdi
	call	_ZN7MatricaIdED1Ev
	leaq	-336(%rbp), %rax
	movq	%rax, %rdi
	call	_ZN7MatricaIdED1Ev
	leaq	-400(%rbp), %rax
	movq	%rax, %rdi
	call	_ZN7MatricaIdED1Ev
	leaq	-272(%rbp), %rax
	movl	$3, %esi
	movq	%rax, %rdi
.LEHB19:
	call	_ZN7MatricaIdE9jedinicnaEi
.LEHE19:
	leaq	-208(%rbp), %rax
	leaq	-960(%rbp), %rdx
	leaq	-896(%rbp), %rcx
	movq	%rcx, %rsi
	movq	%rax, %rdi
.LEHB20:
	call	_ZNK7MatricaIdEmlERKS0_
.LEHE20:
	leaq	-1024(%rbp), %rax
	leaq	-272(%rbp), %rdx
	leaq	-208(%rbp), %rcx
	movq	%rcx, %rsi
	movq	%rax, %rdi
.LEHB21:
	call	_ZNK7MatricaIdEmlERKS0_
.LEHE21:
	leaq	-208(%rbp), %rax
	movq	%rax, %rdi
	call	_ZN7MatricaIdED1Ev
	leaq	-272(%rbp), %rax
	movq	%rax, %rdi
	call	_ZN7MatricaIdED1Ev
	leaq	-144(%rbp), %rax
	leaq	-1024(%rbp), %rdx
	movq	%rdx, %rsi
	movq	%rax, %rdi
.LEHB22:
	call	_ZNK7MatricaIdEngEv
.LEHE22:
	leaq	-144(%rbp), %rax
	movq	%rax, %rdi
.LEHB23:
	call	_ZNK7MatricaIdE5ispisEv
.LEHE23:
	leaq	-144(%rbp), %rax
	movq	%rax, %rdi
	call	_ZN7MatricaIdED1Ev
	leaq	-80(%rbp), %rax
	movl	$3, %esi
	movq	%rax, %rdi
.LEHB24:
	call	_ZN7MatricaIdE9jedinicnaEi
.LEHE24:
	leaq	-80(%rbp), %rdx
	leaq	-1024(%rbp), %rax
	movq	%rdx, %rsi
	movq	%rax, %rdi
.LEHB25:
	call	_ZN7MatricaIdEmIERKS0_
	movq	%rax, %rdi
	call	_ZNK7MatricaIdE5ispisEv
.LEHE25:
	leaq	-80(%rbp), %rax
	movq	%rax, %rdi
	call	_ZN7MatricaIdED1Ev
.L40:
	leaq	-1024(%rbp), %rax
	movq	%rax, %rdi
	call	_ZN7MatricaIdED1Ev
	leaq	-960(%rbp), %rax
	movq	%rax, %rdi
	call	_ZN7MatricaIdED1Ev
	leaq	-896(%rbp), %rax
	movq	%rax, %rdi
	call	_ZN7MatricaIdED1Ev
	jmp	.L62
.L44:
	movq	%rax, %rbx
	leaq	-832(%rbp), %rax
	movq	%rax, %rdi
	call	_ZNSt7__cxx1112basic_stringIcSt11char_traitsIcESaIcEED1Ev@PLT
	jmp	.L22
.L43:
	movq	%rax, %rbx
.L22:
	leaq	-785(%rbp), %rax
	movq	%rax, %rdi
	call	_ZNSaIcED1Ev@PLT
	movq	%rbx, %rax
	movq	%rax, %rdi
.LEHB26:
	call	_Unwind_Resume@PLT
.LEHE26:
.L47:
	movq	%rax, %rbx
	leaq	-784(%rbp), %rax
	movq	%rax, %rdi
	call	_ZN7MatricaIdED1Ev
	jmp	.L24
.L48:
	movq	%rax, %rbx
	leaq	-720(%rbp), %rax
	movq	%rax, %rdi
	call	_ZN7MatricaIdED1Ev
	jmp	.L24
.L50:
	movq	%rax, %rbx
	leaq	-592(%rbp), %rax
	movq	%rax, %rdi
	call	_ZN7MatricaIdED1Ev
	jmp	.L27
.L49:
	movq	%rax, %rbx
.L27:
	leaq	-656(%rbp), %rax
	movq	%rax, %rdi
	call	_ZN7MatricaIdED1Ev
	jmp	.L24
.L51:
	movq	%rax, %rbx
	leaq	-528(%rbp), %rax
	movq	%rax, %rdi
	call	_ZN7MatricaIdED1Ev
	jmp	.L24
.L54:
	movq	%rax, %rbx
	leaq	-464(%rbp), %rax
	movq	%rax, %rdi
	call	_ZN7MatricaIdED1Ev
	jmp	.L30
.L53:
	movq	%rax, %rbx
.L30:
	leaq	-336(%rbp), %rax
	movq	%rax, %rdi
	call	_ZN7MatricaIdED1Ev
	jmp	.L31
.L52:
	movq	%rax, %rbx
.L31:
	leaq	-400(%rbp), %rax
	movq	%rax, %rdi
	call	_ZN7MatricaIdED1Ev
	jmp	.L24
.L56:
	movq	%rax, %rbx
	leaq	-208(%rbp), %rax
	movq	%rax, %rdi
	call	_ZN7MatricaIdED1Ev
	jmp	.L33
.L55:
	movq	%rax, %rbx
.L33:
	leaq	-272(%rbp), %rax
	movq	%rax, %rdi
	call	_ZN7MatricaIdED1Ev
	jmp	.L24
.L58:
	movq	%rax, %rbx
	leaq	-144(%rbp), %rax
	movq	%rax, %rdi
	call	_ZN7MatricaIdED1Ev
	jmp	.L35
.L60:
	movq	%rax, %rbx
	movq	%rdx, %r12
	leaq	-80(%rbp), %rax
	movq	%rax, %rdi
	call	_ZN7MatricaIdED1Ev
	movq	%r12, %rax
	jmp	.L37
.L59:
	movq	%rax, %rbx
	movq	%rdx, %rax
.L37:
	cmpq	$1, %rax
	je	.L39
	jmp	.L35
.L39:
	movq	%rbx, %rax
	movq	%rax, %rdi
	call	__cxa_get_exception_ptr@PLT
	movq	%rax, %rdx
	leaq	-1032(%rbp), %rax
	movq	%rdx, %rsi
	movq	%rax, %rdi
	call	_ZNSt9exceptionC1ERKS_
	movq	%rbx, %rax
	movq	%rax, %rdi
	call	__cxa_begin_catch@PLT
	leaq	-1032(%rbp), %rax
	movq	%rax, %rdi
	call	_ZNKSt9exception4whatEv@PLT
	movq	%rax, %rsi
	leaq	_ZSt4cerr(%rip), %rdi
.LEHB27:
	call	_ZStlsISt11char_traitsIcEERSt13basic_ostreamIcT_ES5_PKc@PLT
	movq	%rax, %rdx
	movq	_ZSt4endlIcSt11char_traitsIcEERSt13basic_ostreamIT_T0_ES6_@GOTPCREL(%rip), %rax
	movq	%rax, %rsi
	movq	%rdx, %rdi
	call	_ZNSolsEPFRSoS_E@PLT
.LEHE27:
	leaq	-1032(%rbp), %rax
	movq	%rax, %rdi
	call	_ZNSt9exceptionD1Ev@PLT
	call	__cxa_end_catch@PLT
	jmp	.L40
.L61:
	movq	%rax, %rbx
	leaq	-1032(%rbp), %rax
	movq	%rax, %rdi
	call	_ZNSt9exceptionD1Ev@PLT
	call	__cxa_end_catch@PLT
	jmp	.L35
.L57:
	movq	%rax, %rbx
.L35:
	leaq	-1024(%rbp), %rax
	movq	%rax, %rdi
	call	_ZN7MatricaIdED1Ev
	jmp	.L24
.L46:
	movq	%rax, %rbx
.L24:
	leaq	-960(%rbp), %rax
	movq	%rax, %rdi
	call	_ZN7MatricaIdED1Ev
	jmp	.L42
.L45:
	movq	%rax, %rbx
.L42:
	leaq	-896(%rbp), %rax
	movq	%rax, %rdi
	call	_ZN7MatricaIdED1Ev
	movq	%rbx, %rax
	movq	%rax, %rdi
.LEHB28:
	call	_Unwind_Resume@PLT
.LEHE28:
.L62:
	addq	$1040, %rsp
	popq	%rbx
	popq	%r12
	popq	%rbp
	.cfi_def_cfa 7, 8
	ret
	.cfi_endproc
.LFE3417:
	.section	.gcc_except_table
	.align 4
.LLSDA3417:
	.byte	0xff
	.byte	0x9b
	.uleb128 .LLSDATT3417-.LLSDATTD3417
.LLSDATTD3417:
	.byte	0x1
	.uleb128 .LLSDACSE3417-.LLSDACSB3417
.LLSDACSB3417:
	.uleb128 .LEHB2-.LFB3417
	.uleb128 .LEHE2-.LEHB2
	.uleb128 0
	.uleb128 0
	.uleb128 .LEHB3-.LFB3417
	.uleb128 .LEHE3-.LEHB3
	.uleb128 .L43-.LFB3417
	.uleb128 0
	.uleb128 .LEHB4-.LFB3417
	.uleb128 .LEHE4-.LEHB4
	.uleb128 .L44-.LFB3417
	.uleb128 0
	.uleb128 .LEHB5-.LFB3417
	.uleb128 .LEHE5-.LEHB5
	.uleb128 .L45-.LFB3417
	.uleb128 0
	.uleb128 .LEHB6-.LFB3417
	.uleb128 .LEHE6-.LEHB6
	.uleb128 .L46-.LFB3417
	.uleb128 0
	.uleb128 .LEHB7-.LFB3417
	.uleb128 .LEHE7-.LEHB7
	.uleb128 .L47-.LFB3417
	.uleb128 0
	.uleb128 .LEHB8-.LFB3417
	.uleb128 .LEHE8-.LEHB8
	.uleb128 .L46-.LFB3417
	.uleb128 0
	.uleb128 .LEHB9-.LFB3417
	.uleb128 .LEHE9-.LEHB9
	.uleb128 .L48-.LFB3417
	.uleb128 0
	.uleb128 .LEHB10-.LFB3417
	.uleb128 .LEHE10-.LEHB10
	.uleb128 .L46-.LFB3417
	.uleb128 0
	.uleb128 .LEHB11-.LFB3417
	.uleb128 .LEHE11-.LEHB11
	.uleb128 .L49-.LFB3417
	.uleb128 0
	.uleb128 .LEHB12-.LFB3417
	.uleb128 .LEHE12-.LEHB12
	.uleb128 .L50-.LFB3417
	.uleb128 0
	.uleb128 .LEHB13-.LFB3417
	.uleb128 .LEHE13-.LEHB13
	.uleb128 .L46-.LFB3417
	.uleb128 0
	.uleb128 .LEHB14-.LFB3417
	.uleb128 .LEHE14-.LEHB14
	.uleb128 .L51-.LFB3417
	.uleb128 0
	.uleb128 .LEHB15-.LFB3417
	.uleb128 .LEHE15-.LEHB15
	.uleb128 .L46-.LFB3417
	.uleb128 0
	.uleb128 .LEHB16-.LFB3417
	.uleb128 .LEHE16-.LEHB16
	.uleb128 .L52-.LFB3417
	.uleb128 0
	.uleb128 .LEHB17-.LFB3417
	.uleb128 .LEHE17-.LEHB17
	.uleb128 .L53-.LFB3417
	.uleb128 0
	.uleb128 .LEHB18-.LFB3417
	.uleb128 .LEHE18-.LEHB18
	.uleb128 .L54-.LFB3417
	.uleb128 0
	.uleb128 .LEHB19-.LFB3417
	.uleb128 .LEHE19-.LEHB19
	.uleb128 .L46-.LFB3417
	.uleb128 0
	.uleb128 .LEHB20-.LFB3417
	.uleb128 .LEHE20-.LEHB20
	.uleb128 .L55-.LFB3417
	.uleb128 0
	.uleb128 .LEHB21-.LFB3417
	.uleb128 .LEHE21-.LEHB21
	.uleb128 .L56-.LFB3417
	.uleb128 0
	.uleb128 .LEHB22-.LFB3417
	.uleb128 .LEHE22-.LEHB22
	.uleb128 .L57-.LFB3417
	.uleb128 0
	.uleb128 .LEHB23-.LFB3417
	.uleb128 .LEHE23-.LEHB23
	.uleb128 .L58-.LFB3417
	.uleb128 0
	.uleb128 .LEHB24-.LFB3417
	.uleb128 .LEHE24-.LEHB24
	.uleb128 .L59-.LFB3417
	.uleb128 0x3
	.uleb128 .LEHB25-.LFB3417
	.uleb128 .LEHE25-.LEHB25
	.uleb128 .L60-.LFB3417
	.uleb128 0x3
	.uleb128 .LEHB26-.LFB3417
	.uleb128 .LEHE26-.LEHB26
	.uleb128 0
	.uleb128 0
	.uleb128 .LEHB27-.LFB3417
	.uleb128 .LEHE27-.LEHB27
	.uleb128 .L61-.LFB3417
	.uleb128 0
	.uleb128 .LEHB28-.LFB3417
	.uleb128 .LEHE28-.LEHB28
	.uleb128 0
	.uleb128 0
.LLSDACSE3417:
	.byte	0
	.byte	0
	.byte	0x1
	.byte	0x7d
	.align 4
	.long	DW.ref._ZTISt9exception-.
.LLSDATT3417:
	.text
	.size	_Z4testv, .-_Z4testv
	.section	.text._ZN17Matrica_exceptionC2ERKS_,"axG",@progbits,_ZN17Matrica_exceptionC5ERKS_,comdat
	.align 2
	.weak	_ZN17Matrica_exceptionC2ERKS_
	.type	_ZN17Matrica_exceptionC2ERKS_, @function
_ZN17Matrica_exceptionC2ERKS_:
.LFB3423:
	.cfi_startproc
	.cfi_personality 0x9b,DW.ref.__gxx_personality_v0
	.cfi_lsda 0x1b,.LLSDA3423
	pushq	%rbp
	.cfi_def_cfa_offset 16
	.cfi_offset 6, -16
	movq	%rsp, %rbp
	.cfi_def_cfa_register 6
	pushq	%rbx
	subq	$24, %rsp
	.cfi_offset 3, -24
	movq	%rdi, -24(%rbp)
	movq	%rsi, -32(%rbp)
	movq	-24(%rbp), %rax
	movq	-32(%rbp), %rdx
	movq	%rdx, %rsi
	movq	%rax, %rdi
	call	_ZNSt9exceptionC2ERKS_
	leaq	16+_ZTV17Matrica_exception(%rip), %rdx
	movq	-24(%rbp), %rax
	movq	%rdx, (%rax)
	movq	-24(%rbp), %rax
	addq	$8, %rax
	movq	-32(%rbp), %rdx
	addq	$8, %rdx
	movq	%rdx, %rsi
	movq	%rax, %rdi
.LEHB29:
	call	_ZNSt7__cxx1112basic_stringIcSt11char_traitsIcESaIcEEC1ERKS4_@PLT
.LEHE29:
	jmp	.L66
.L65:
	movq	%rax, %rbx
	movq	-24(%rbp), %rax
	movq	%rax, %rdi
	call	_ZNSt9exceptionD2Ev@PLT
	movq	%rbx, %rax
	movq	%rax, %rdi
.LEHB30:
	call	_Unwind_Resume@PLT
.LEHE30:
.L66:
	addq	$24, %rsp
	popq	%rbx
	popq	%rbp
	.cfi_def_cfa 7, 8
	ret
	.cfi_endproc
.LFE3423:
	.section	.gcc_except_table
.LLSDA3423:
	.byte	0xff
	.byte	0xff
	.byte	0x1
	.uleb128 .LLSDACSE3423-.LLSDACSB3423
.LLSDACSB3423:
	.uleb128 .LEHB29-.LFB3423
	.uleb128 .LEHE29-.LEHB29
	.uleb128 .L65-.LFB3423
	.uleb128 0
	.uleb128 .LEHB30-.LFB3423
	.uleb128 .LEHE30-.LEHB30
	.uleb128 0
	.uleb128 0
.LLSDACSE3423:
	.section	.text._ZN17Matrica_exceptionC2ERKS_,"axG",@progbits,_ZN17Matrica_exceptionC5ERKS_,comdat
	.size	_ZN17Matrica_exceptionC2ERKS_, .-_ZN17Matrica_exceptionC2ERKS_
	.weak	_ZN17Matrica_exceptionC1ERKS_
	.set	_ZN17Matrica_exceptionC1ERKS_,_ZN17Matrica_exceptionC2ERKS_
	.section	.rodata
	.align 8
.LC4:
	.string	"Argumenti: matrica_A matrica_b (LU|LUP)"
.LC5:
	.string	"LU"
.LC6:
	.string	"LUP"
.LC7:
	.string	"Nepodrzana metoda: "
.LC8:
	.string	"Ucitane matrice:\nA:\n"
.LC9:
	.string	"b:\n"
.LC10:
	.string	"Koristim metodu: "
	.align 8
.LC11:
	.string	"Dekompozicija zavrsena, dobivena matrica: \n"
	.align 8
.LC12:
	.string	"Radim supstituciju unaprijed.\n"
.LC13:
	.string	"Vektor y:\n"
.LC14:
	.string	"Radim supstituciju unatrag.\n"
.LC15:
	.string	"Vektor x (rjesenje):\n"
	.text
	.globl	_Z5main2iPPc
	.type	_Z5main2iPPc, @function
_Z5main2iPPc:
.LFB3421:
	.cfi_startproc
	.cfi_personality 0x9b,DW.ref.__gxx_personality_v0
	.cfi_lsda 0x1b,.LLSDA3421
	pushq	%rbp
	.cfi_def_cfa_offset 16
	.cfi_offset 6, -16
	movq	%rsp, %rbp
	.cfi_def_cfa_register 6
	pushq	%r12
	pushq	%rbx
	subq	$608, %rsp
	.cfi_offset 12, -24
	.cfi_offset 3, -32
	movl	%edi, -612(%rbp)
	movq	%rsi, -624(%rbp)
	cmpl	$3, -612(%rbp)
	jg	.L68
	leaq	.LC4(%rip), %rsi
	leaq	_ZSt4cerr(%rip), %rdi
.LEHB31:
	call	_ZStlsISt11char_traitsIcEERSt13basic_ostreamIcT_ES5_PKc@PLT
.LEHE31:
	movl	$1, %ebx
	jmp	.L76
.L68:
	leaq	-241(%rbp), %rax
	movq	%rax, %rdi
	call	_ZNSaIcEC1Ev@PLT
	movq	-624(%rbp), %rax
	addq	$24, %rax
	movq	(%rax), %rcx
	leaq	-241(%rbp), %rdx
	leaq	-288(%rbp), %rax
	movq	%rcx, %rsi
	movq	%rax, %rdi
.LEHB32:
	call	_ZNSt7__cxx1112basic_stringIcSt11char_traitsIcESaIcEEC1EPKcRKS3_@PLT
.LEHE32:
	leaq	-241(%rbp), %rax
	movq	%rax, %rdi
	call	_ZNSaIcED1Ev@PLT
	leaq	-288(%rbp), %rax
	leaq	.LC5(%rip), %rsi
	movq	%rax, %rdi
.LEHB33:
	call	_ZStneIcSt11char_traitsIcESaIcEEbRKNSt7__cxx1112basic_stringIT_T0_T1_EEPKS5_
	testb	%al, %al
	je	.L70
	leaq	-288(%rbp), %rax
	leaq	.LC6(%rip), %rsi
	movq	%rax, %rdi
	call	_ZStneIcSt11char_traitsIcESaIcEEbRKNSt7__cxx1112basic_stringIT_T0_T1_EEPKS5_
	testb	%al, %al
	je	.L70
	movl	$1, %eax
	jmp	.L71
.L70:
	movl	$0, %eax
.L71:
	testb	%al, %al
	je	.L72
	leaq	.LC7(%rip), %rsi
	leaq	_ZSt4cerr(%rip), %rdi
	call	_ZStlsISt11char_traitsIcEERSt13basic_ostreamIcT_ES5_PKc@PLT
	movq	%rax, %rdx
	leaq	-288(%rbp), %rax
	movq	%rax, %rsi
	movq	%rdx, %rdi
	call	_ZStlsIcSt11char_traitsIcESaIcEERSt13basic_ostreamIT_T0_ES7_RKNSt7__cxx1112basic_stringIS4_S5_T1_EE@PLT
.LEHE33:
	movl	$1, %ebx
	jmp	.L73
.L72:
	leaq	-193(%rbp), %rax
	movq	%rax, %rdi
	call	_ZNSaIcEC1Ev@PLT
	movq	-624(%rbp), %rax
	addq	$8, %rax
	movq	(%rax), %rcx
	leaq	-193(%rbp), %rdx
	leaq	-240(%rbp), %rax
	movq	%rcx, %rsi
	movq	%rax, %rdi
.LEHB34:
	call	_ZNSt7__cxx1112basic_stringIcSt11char_traitsIcESaIcEEC1EPKcRKS3_@PLT
.LEHE34:
	leaq	-240(%rbp), %rdx
	leaq	-352(%rbp), %rax
	movq	%rdx, %rsi
	movq	%rax, %rdi
.LEHB35:
	call	_ZN7MatricaIdEC1ENSt7__cxx1112basic_stringIcSt11char_traitsIcESaIcEEE
.LEHE35:
	leaq	-240(%rbp), %rax
	movq	%rax, %rdi
	call	_ZNSt7__cxx1112basic_stringIcSt11char_traitsIcESaIcEED1Ev@PLT
	leaq	-193(%rbp), %rax
	movq	%rax, %rdi
	call	_ZNSaIcED1Ev@PLT
	leaq	-145(%rbp), %rax
	movq	%rax, %rdi
	call	_ZNSaIcEC1Ev@PLT
	movq	-624(%rbp), %rax
	addq	$16, %rax
	movq	(%rax), %rcx
	leaq	-145(%rbp), %rdx
	leaq	-192(%rbp), %rax
	movq	%rcx, %rsi
	movq	%rax, %rdi
.LEHB36:
	call	_ZNSt7__cxx1112basic_stringIcSt11char_traitsIcESaIcEEC1EPKcRKS3_@PLT
.LEHE36:
	leaq	-192(%rbp), %rdx
	leaq	-416(%rbp), %rax
	movq	%rdx, %rsi
	movq	%rax, %rdi
.LEHB37:
	call	_ZN7MatricaIdEC1ENSt7__cxx1112basic_stringIcSt11char_traitsIcESaIcEEE
.LEHE37:
	leaq	-192(%rbp), %rax
	movq	%rax, %rdi
	call	_ZNSt7__cxx1112basic_stringIcSt11char_traitsIcESaIcEED1Ev@PLT
	leaq	-145(%rbp), %rax
	movq	%rax, %rdi
	call	_ZNSaIcED1Ev@PLT
	leaq	.LC8(%rip), %rsi
	leaq	_ZSt4cout(%rip), %rdi
.LEHB38:
	call	_ZStlsISt11char_traitsIcEERSt13basic_ostreamIcT_ES5_PKc@PLT
	leaq	-352(%rbp), %rax
	movq	%rax, %rdi
	call	_ZNK7MatricaIdE5ispisEv
	leaq	.LC9(%rip), %rsi
	leaq	_ZSt4cout(%rip), %rdi
	call	_ZStlsISt11char_traitsIcEERSt13basic_ostreamIcT_ES5_PKc@PLT
	leaq	-416(%rbp), %rax
	movq	%rax, %rdi
	call	_ZNK7MatricaIdE5ispisEv
	leaq	.LC10(%rip), %rsi
	leaq	_ZSt4cout(%rip), %rdi
	call	_ZStlsISt11char_traitsIcEERSt13basic_ostreamIcT_ES5_PKc@PLT
	movq	%rax, %rdx
	leaq	-288(%rbp), %rax
	movq	%rax, %rsi
	movq	%rdx, %rdi
	call	_ZStlsIcSt11char_traitsIcESaIcEERSt13basic_ostreamIT_T0_ES7_RKNSt7__cxx1112basic_stringIS4_S5_T1_EE@PLT
	movq	%rax, %rdx
	movq	_ZSt4endlIcSt11char_traitsIcEERSt13basic_ostreamIT_T0_ES6_@GOTPCREL(%rip), %rax
	movq	%rax, %rsi
	movq	%rdx, %rdi
	call	_ZNSolsEPFRSoS_E@PLT
.LEHE38:
	leaq	-608(%rbp), %rax
	movq	%rax, %rdi
.LEHB39:
	call	_ZN7MatricaIdEC1Ev
.LEHE39:
	leaq	-288(%rbp), %rax
	leaq	.LC5(%rip), %rsi
	movq	%rax, %rdi
	call	_ZSteqIcSt11char_traitsIcESaIcEEbRKNSt7__cxx1112basic_stringIT_T0_T1_EEPKS5_
	testb	%al, %al
	je	.L74
	leaq	-144(%rbp), %rax
	leaq	-352(%rbp), %rdx
	movq	%rdx, %rsi
	movq	%rax, %rdi
.LEHB40:
	call	_ZNK7MatricaIdE16LU_dekompozicijaEv
.LEHE40:
	leaq	-144(%rbp), %rdx
	leaq	-608(%rbp), %rax
	movq	%rdx, %rsi
	movq	%rax, %rdi
.LEHB41:
	call	_ZN7MatricaIdEaSEOS0_
.LEHE41:
	leaq	-144(%rbp), %rax
	movq	%rax, %rdi
	call	_ZN7MatricaIdED1Ev
	jmp	.L75
.L74:
	leaq	-80(%rbp), %rax
	leaq	-416(%rbp), %rdx
	leaq	-352(%rbp), %rcx
	movq	%rcx, %rsi
	movq	%rax, %rdi
.LEHB42:
	call	_ZNK7MatricaIdE17LUP_dekompozicijaERS0_
.LEHE42:
	leaq	-80(%rbp), %rdx
	leaq	-608(%rbp), %rax
	movq	%rdx, %rsi
	movq	%rax, %rdi
.LEHB43:
	call	_ZN7MatricaIdEaSEOS0_
.LEHE43:
	leaq	-80(%rbp), %rax
	movq	%rax, %rdi
	call	_ZN7MatricaIdED1Ev
.L75:
	leaq	.LC11(%rip), %rsi
	leaq	_ZSt4cout(%rip), %rdi
.LEHB44:
	call	_ZStlsISt11char_traitsIcEERSt13basic_ostreamIcT_ES5_PKc@PLT
	leaq	-608(%rbp), %rax
	movq	%rax, %rdi
	call	_ZNK7MatricaIdE5ispisEv
	leaq	.LC12(%rip), %rsi
	leaq	_ZSt4cout(%rip), %rdi
	call	_ZStlsISt11char_traitsIcEERSt13basic_ostreamIcT_ES5_PKc@PLT
	leaq	-544(%rbp), %rax
	leaq	-416(%rbp), %rdx
	leaq	-608(%rbp), %rcx
	movq	%rcx, %rsi
	movq	%rax, %rdi
	call	_ZNK7MatricaIdE22supstitucija_unaprijedERKS0_
.LEHE44:
	leaq	.LC13(%rip), %rsi
	leaq	_ZSt4cout(%rip), %rdi
.LEHB45:
	call	_ZStlsISt11char_traitsIcEERSt13basic_ostreamIcT_ES5_PKc@PLT
	leaq	-544(%rbp), %rax
	movq	%rax, %rdi
	call	_ZNK7MatricaIdE5ispisEv
	leaq	.LC14(%rip), %rsi
	leaq	_ZSt4cout(%rip), %rdi
	call	_ZStlsISt11char_traitsIcEERSt13basic_ostreamIcT_ES5_PKc@PLT
	leaq	-480(%rbp), %rax
	leaq	-544(%rbp), %rdx
	leaq	-608(%rbp), %rcx
	movq	%rcx, %rsi
	movq	%rax, %rdi
	call	_ZNK7MatricaIdE20supstitucija_unatragERKS0_
.LEHE45:
	leaq	.LC15(%rip), %rsi
	leaq	_ZSt4cout(%rip), %rdi
.LEHB46:
	call	_ZStlsISt11char_traitsIcEERSt13basic_ostreamIcT_ES5_PKc@PLT
	leaq	-480(%rbp), %rax
	movq	%rax, %rdi
	call	_ZNK7MatricaIdE5ispisEv
.LEHE46:
	leaq	-480(%rbp), %rax
	movq	%rax, %rdi
	call	_ZN7MatricaIdED1Ev
	leaq	-544(%rbp), %rax
	movq	%rax, %rdi
	call	_ZN7MatricaIdED1Ev
	leaq	-608(%rbp), %rax
	movq	%rax, %rdi
	call	_ZN7MatricaIdED1Ev
.L94:
	movl	$0, %ebx
	leaq	-416(%rbp), %rax
	movq	%rax, %rdi
	call	_ZN7MatricaIdED1Ev
	leaq	-352(%rbp), %rax
	movq	%rax, %rdi
	call	_ZN7MatricaIdED1Ev
.L73:
	leaq	-288(%rbp), %rax
	movq	%rax, %rdi
	call	_ZNSt7__cxx1112basic_stringIcSt11char_traitsIcESaIcEED1Ev@PLT
.L76:
	movl	%ebx, %eax
	jmp	.L112
.L97:
	movq	%rax, %rbx
	leaq	-241(%rbp), %rax
	movq	%rax, %rdi
	call	_ZNSaIcED1Ev@PLT
	movq	%rbx, %rax
	movq	%rax, %rdi
.LEHB47:
	call	_Unwind_Resume@PLT
.LEHE47:
.L100:
	movq	%rax, %rbx
	leaq	-240(%rbp), %rax
	movq	%rax, %rdi
	call	_ZNSt7__cxx1112basic_stringIcSt11char_traitsIcESaIcEED1Ev@PLT
	jmp	.L79
.L99:
	movq	%rax, %rbx
.L79:
	leaq	-193(%rbp), %rax
	movq	%rax, %rdi
	call	_ZNSaIcED1Ev@PLT
	jmp	.L80
.L102:
	movq	%rax, %rbx
	leaq	-192(%rbp), %rax
	movq	%rax, %rdi
	call	_ZNSt7__cxx1112basic_stringIcSt11char_traitsIcESaIcEED1Ev@PLT
	jmp	.L82
.L101:
	movq	%rax, %rbx
.L82:
	leaq	-145(%rbp), %rax
	movq	%rax, %rdi
	call	_ZNSaIcED1Ev@PLT
	jmp	.L83
.L106:
	movq	%rax, %rbx
	movq	%rdx, %r12
	leaq	-144(%rbp), %rax
	movq	%rax, %rdi
	call	_ZN7MatricaIdED1Ev
	jmp	.L85
.L107:
	movq	%rax, %rbx
	movq	%rdx, %r12
	leaq	-80(%rbp), %rax
	movq	%rax, %rdi
	call	_ZN7MatricaIdED1Ev
	jmp	.L85
.L109:
	movq	%rax, %rbx
	movq	%rdx, %r12
	leaq	-480(%rbp), %rax
	movq	%rax, %rdi
	call	_ZN7MatricaIdED1Ev
	jmp	.L88
.L108:
	movq	%rax, %rbx
	movq	%rdx, %r12
.L88:
	leaq	-544(%rbp), %rax
	movq	%rax, %rdi
	call	_ZN7MatricaIdED1Ev
	jmp	.L85
.L105:
	movq	%rax, %rbx
	movq	%rdx, %r12
.L85:
	leaq	-608(%rbp), %rax
	movq	%rax, %rdi
	call	_ZN7MatricaIdED1Ev
	movq	%r12, %rax
	jmp	.L89
.L104:
	movq	%rax, %rbx
	movq	%rdx, %rax
.L89:
	cmpq	$1, %rax
	je	.L91
	cmpq	$2, %rax
	je	.L92
	jmp	.L93
.L91:
	movq	%rbx, %rax
	movq	%rax, %rdi
	call	__cxa_get_exception_ptr@PLT
	movq	%rax, %rdx
	leaq	-480(%rbp), %rax
	movq	%rdx, %rsi
	movq	%rax, %rdi
	call	_ZN17Matrica_exceptionC1ERKS_
	movq	%rbx, %rax
	movq	%rax, %rdi
	call	__cxa_begin_catch@PLT
	leaq	-480(%rbp), %rax
	movq	%rax, %rdi
	call	_ZNK17Matrica_exception4whatEv
	movq	%rax, %rsi
	leaq	_ZSt4cerr(%rip), %rdi
.LEHB48:
	call	_ZStlsISt11char_traitsIcEERSt13basic_ostreamIcT_ES5_PKc@PLT
	movq	%rax, %rdx
	movq	_ZSt4endlIcSt11char_traitsIcEERSt13basic_ostreamIT_T0_ES6_@GOTPCREL(%rip), %rax
	movq	%rax, %rsi
	movq	%rdx, %rdi
	call	_ZNSolsEPFRSoS_E@PLT
.LEHE48:
	leaq	-480(%rbp), %rax
	movq	%rax, %rdi
	call	_ZN17Matrica_exceptionD1Ev
	call	__cxa_end_catch@PLT
	jmp	.L94
.L92:
	movq	%rbx, %rax
	movq	%rax, %rdi
	call	__cxa_get_exception_ptr@PLT
	movq	%rax, %rdx
	leaq	-424(%rbp), %rax
	movq	%rdx, %rsi
	movq	%rax, %rdi
	call	_ZNSt9exceptionC1ERKS_
	movq	%rbx, %rax
	movq	%rax, %rdi
	call	__cxa_begin_catch@PLT
	leaq	-424(%rbp), %rax
	movq	%rax, %rdi
	call	_ZNKSt9exception4whatEv@PLT
	movq	%rax, %rsi
	leaq	_ZSt4cerr(%rip), %rdi
.LEHB49:
	call	_ZStlsISt11char_traitsIcEERSt13basic_ostreamIcT_ES5_PKc@PLT
	movq	%rax, %rdx
	movq	_ZSt4endlIcSt11char_traitsIcEERSt13basic_ostreamIT_T0_ES6_@GOTPCREL(%rip), %rax
	movq	%rax, %rsi
	movq	%rdx, %rdi
	call	_ZNSolsEPFRSoS_E@PLT
.LEHE49:
	leaq	-424(%rbp), %rax
	movq	%rax, %rdi
	call	_ZNSt9exceptionD1Ev@PLT
	call	__cxa_end_catch@PLT
	jmp	.L94
.L110:
	movq	%rax, %rbx
	leaq	-480(%rbp), %rax
	movq	%rax, %rdi
	call	_ZN17Matrica_exceptionD1Ev
	call	__cxa_end_catch@PLT
	jmp	.L93
.L111:
	movq	%rax, %rbx
	leaq	-424(%rbp), %rax
	movq	%rax, %rdi
	call	_ZNSt9exceptionD1Ev@PLT
	call	__cxa_end_catch@PLT
	jmp	.L93
.L103:
	movq	%rax, %rbx
.L93:
	leaq	-416(%rbp), %rax
	movq	%rax, %rdi
	call	_ZN7MatricaIdED1Ev
.L83:
	leaq	-352(%rbp), %rax
	movq	%rax, %rdi
	call	_ZN7MatricaIdED1Ev
	jmp	.L80
.L98:
	movq	%rax, %rbx
.L80:
	leaq	-288(%rbp), %rax
	movq	%rax, %rdi
	call	_ZNSt7__cxx1112basic_stringIcSt11char_traitsIcESaIcEED1Ev@PLT
	movq	%rbx, %rax
	movq	%rax, %rdi
.LEHB50:
	call	_Unwind_Resume@PLT
.LEHE50:
.L112:
	addq	$608, %rsp
	popq	%rbx
	popq	%r12
	popq	%rbp
	.cfi_def_cfa 7, 8
	ret
	.cfi_endproc
.LFE3421:
	.section	.gcc_except_table
	.align 4
.LLSDA3421:
	.byte	0xff
	.byte	0x9b
	.uleb128 .LLSDATT3421-.LLSDATTD3421
.LLSDATTD3421:
	.byte	0x1
	.uleb128 .LLSDACSE3421-.LLSDACSB3421
.LLSDACSB3421:
	.uleb128 .LEHB31-.LFB3421
	.uleb128 .LEHE31-.LEHB31
	.uleb128 0
	.uleb128 0
	.uleb128 .LEHB32-.LFB3421
	.uleb128 .LEHE32-.LEHB32
	.uleb128 .L97-.LFB3421
	.uleb128 0
	.uleb128 .LEHB33-.LFB3421
	.uleb128 .LEHE33-.LEHB33
	.uleb128 .L98-.LFB3421
	.uleb128 0
	.uleb128 .LEHB34-.LFB3421
	.uleb128 .LEHE34-.LEHB34
	.uleb128 .L99-.LFB3421
	.uleb128 0
	.uleb128 .LEHB35-.LFB3421
	.uleb128 .LEHE35-.LEHB35
	.uleb128 .L100-.LFB3421
	.uleb128 0
	.uleb128 .LEHB36-.LFB3421
	.uleb128 .LEHE36-.LEHB36
	.uleb128 .L101-.LFB3421
	.uleb128 0
	.uleb128 .LEHB37-.LFB3421
	.uleb128 .LEHE37-.LEHB37
	.uleb128 .L102-.LFB3421
	.uleb128 0
	.uleb128 .LEHB38-.LFB3421
	.uleb128 .LEHE38-.LEHB38
	.uleb128 .L103-.LFB3421
	.uleb128 0
	.uleb128 .LEHB39-.LFB3421
	.uleb128 .LEHE39-.LEHB39
	.uleb128 .L104-.LFB3421
	.uleb128 0x5
	.uleb128 .LEHB40-.LFB3421
	.uleb128 .LEHE40-.LEHB40
	.uleb128 .L105-.LFB3421
	.uleb128 0x5
	.uleb128 .LEHB41-.LFB3421
	.uleb128 .LEHE41-.LEHB41
	.uleb128 .L106-.LFB3421
	.uleb128 0x5
	.uleb128 .LEHB42-.LFB3421
	.uleb128 .LEHE42-.LEHB42
	.uleb128 .L105-.LFB3421
	.uleb128 0x5
	.uleb128 .LEHB43-.LFB3421
	.uleb128 .LEHE43-.LEHB43
	.uleb128 .L107-.LFB3421
	.uleb128 0x5
	.uleb128 .LEHB44-.LFB3421
	.uleb128 .LEHE44-.LEHB44
	.uleb128 .L105-.LFB3421
	.uleb128 0x5
	.uleb128 .LEHB45-.LFB3421
	.uleb128 .LEHE45-.LEHB45
	.uleb128 .L108-.LFB3421
	.uleb128 0x5
	.uleb128 .LEHB46-.LFB3421
	.uleb128 .LEHE46-.LEHB46
	.uleb128 .L109-.LFB3421
	.uleb128 0x5
	.uleb128 .LEHB47-.LFB3421
	.uleb128 .LEHE47-.LEHB47
	.uleb128 0
	.uleb128 0
	.uleb128 .LEHB48-.LFB3421
	.uleb128 .LEHE48-.LEHB48
	.uleb128 .L110-.LFB3421
	.uleb128 0
	.uleb128 .LEHB49-.LFB3421
	.uleb128 .LEHE49-.LEHB49
	.uleb128 .L111-.LFB3421
	.uleb128 0
	.uleb128 .LEHB50-.LFB3421
	.uleb128 .LEHE50-.LEHB50
	.uleb128 0
	.uleb128 0
.LLSDACSE3421:
	.byte	0
	.byte	0
	.byte	0x2
	.byte	0x7d
	.byte	0x1
	.byte	0x7d
	.align 4
	.long	DW.ref._ZTISt9exception-.
	.long	DW.ref._ZTI17Matrica_exception-.
.LLSDATT3421:
	.text
	.size	_Z5main2iPPc, .-_Z5main2iPPc
	.section	.rodata
.LC16:
	.string	"inverz.txt"
	.text
	.globl	_Z5main2v
	.type	_Z5main2v, @function
_Z5main2v:
.LFB3425:
	.cfi_startproc
	.cfi_personality 0x9b,DW.ref.__gxx_personality_v0
	.cfi_lsda 0x1b,.LLSDA3425
	pushq	%rbp
	.cfi_def_cfa_offset 16
	.cfi_offset 6, -16
	movq	%rsp, %rbp
	.cfi_def_cfa_register 6
	pushq	%r13
	pushq	%r12
	pushq	%rbx
	subq	$392, %rsp
	.cfi_offset 13, -24
	.cfi_offset 12, -32
	.cfi_offset 3, -40
	leaq	-257(%rbp), %rax
	movq	%rax, %rdi
	call	_ZNSaIcEC1Ev@PLT
	leaq	-257(%rbp), %rdx
	leaq	-304(%rbp), %rax
	leaq	.LC16(%rip), %rsi
	movq	%rax, %rdi
.LEHB51:
	call	_ZNSt7__cxx1112basic_stringIcSt11char_traitsIcESaIcEEC1EPKcRKS3_@PLT
.LEHE51:
	leaq	-304(%rbp), %rdx
	leaq	-368(%rbp), %rax
	movq	%rdx, %rsi
	movq	%rax, %rdi
.LEHB52:
	call	_ZN7MatricaIdEC1ENSt7__cxx1112basic_stringIcSt11char_traitsIcESaIcEEE
.LEHE52:
	leaq	-304(%rbp), %rax
	movq	%rax, %rdi
	call	_ZNSt7__cxx1112basic_stringIcSt11char_traitsIcESaIcEED1Ev@PLT
	leaq	-257(%rbp), %rax
	movq	%rax, %rdi
	call	_ZNSaIcED1Ev@PLT
	leaq	-256(%rbp), %rax
	leaq	-368(%rbp), %rdx
	movq	%rdx, %rsi
	movq	%rax, %rdi
.LEHB53:
	call	_ZNK7MatricaIdE3invEv
.LEHE53:
	leaq	-256(%rbp), %rax
	movq	%rax, %rdi
.LEHB54:
	call	_ZNK7MatricaIdE5ispisEv
.LEHE54:
	leaq	-256(%rbp), %rax
	movq	%rax, %rdi
	call	_ZN7MatricaIdED1Ev
	leaq	._95(%rip), %r12
	movl	$3, %r13d
	movq	%r12, %rcx
	movq	%r13, %rbx
	movq	%r12, %rax
	movq	%r13, %rdx
	leaq	-384(%rbp), %rax
	movq	%rcx, %rsi
	movq	%rax, %rdi
.LEHB55:
	call	_ZNSt8valarrayIdEC1ESt16initializer_listIdE
.LEHE55:
	leaq	-384(%rbp), %rdx
	leaq	-128(%rbp), %rax
	movq	%rdx, %rsi
	movq	%rax, %rdi
.LEHB56:
	call	_ZN7MatricaIdEC1ERKSt8valarrayIdE
.LEHE56:
	leaq	-192(%rbp), %rax
	leaq	-128(%rbp), %rdx
	leaq	-368(%rbp), %rcx
	movq	%rcx, %rsi
	movq	%rax, %rdi
.LEHB57:
	call	_ZNK7MatricaIdEmlERKS0_
.LEHE57:
	leaq	-400(%rbp), %rax
	leaq	-192(%rbp), %rdx
	movq	%rdx, %rsi
	movq	%rax, %rdi
.LEHB58:
	call	_ZNK7MatricaIdEcvSt8valarrayIdEEv
.LEHE58:
	leaq	-192(%rbp), %rax
	movq	%rax, %rdi
	call	_ZN7MatricaIdED1Ev
	leaq	-128(%rbp), %rax
	movq	%rax, %rdi
	call	_ZN7MatricaIdED1Ev
	leaq	-400(%rbp), %rax
	movq	%rax, -48(%rbp)
	movq	-48(%rbp), %rax
	movq	%rax, %rdi
.LEHB59:
	call	_ZSt5beginIdEPT_RSt8valarrayIS0_E
	movq	%rax, -40(%rbp)
	movq	-48(%rbp), %rax
	movq	%rax, %rdi
	call	_ZSt3endIdEPT_RSt8valarrayIS0_E
	movq	%rax, -56(%rbp)
.L115:
	movq	-40(%rbp), %rax
	cmpq	-56(%rbp), %rax
	je	.L114
	movq	-40(%rbp), %rax
	movq	%rax, -64(%rbp)
	movq	-64(%rbp), %rax
	movq	(%rax), %rax
	movq	%rax, -408(%rbp)
	movsd	-408(%rbp), %xmm0
	leaq	_ZSt4cout(%rip), %rdi
	call	_ZNSolsEd@PLT
	movq	%rax, %rdx
	movq	_ZSt4endlIcSt11char_traitsIcEERSt13basic_ostreamIT_T0_ES6_@GOTPCREL(%rip), %rax
	movq	%rax, %rsi
	movq	%rdx, %rdi
	call	_ZNSolsEPFRSoS_E@PLT
.LEHE59:
	addq	$8, -40(%rbp)
	jmp	.L115
.L114:
	leaq	-400(%rbp), %rax
	movq	%rax, %rdi
	call	_ZNSt8valarrayIdED1Ev
	leaq	-384(%rbp), %rax
	movq	%rax, %rdi
	call	_ZNSt8valarrayIdED1Ev
	leaq	-368(%rbp), %rax
	movq	%rax, %rdi
	call	_ZN7MatricaIdED1Ev
	jmp	.L132
.L125:
	movq	%rax, %rbx
	leaq	-304(%rbp), %rax
	movq	%rax, %rdi
	call	_ZNSt7__cxx1112basic_stringIcSt11char_traitsIcESaIcEED1Ev@PLT
	jmp	.L117
.L124:
	movq	%rax, %rbx
.L117:
	leaq	-257(%rbp), %rax
	movq	%rax, %rdi
	call	_ZNSaIcED1Ev@PLT
	movq	%rbx, %rax
	movq	%rax, %rdi
.LEHB60:
	call	_Unwind_Resume@PLT
.L127:
	movq	%rax, %rbx
	leaq	-256(%rbp), %rax
	movq	%rax, %rdi
	call	_ZN7MatricaIdED1Ev
	jmp	.L119
.L130:
	movq	%rax, %rbx
	leaq	-192(%rbp), %rax
	movq	%rax, %rdi
	call	_ZN7MatricaIdED1Ev
	jmp	.L121
.L129:
	movq	%rax, %rbx
.L121:
	leaq	-128(%rbp), %rax
	movq	%rax, %rdi
	call	_ZN7MatricaIdED1Ev
	jmp	.L122
.L131:
	movq	%rax, %rbx
	leaq	-400(%rbp), %rax
	movq	%rax, %rdi
	call	_ZNSt8valarrayIdED1Ev
	jmp	.L122
.L128:
	movq	%rax, %rbx
.L122:
	leaq	-384(%rbp), %rax
	movq	%rax, %rdi
	call	_ZNSt8valarrayIdED1Ev
	jmp	.L119
.L126:
	movq	%rax, %rbx
.L119:
	leaq	-368(%rbp), %rax
	movq	%rax, %rdi
	call	_ZN7MatricaIdED1Ev
	movq	%rbx, %rax
	movq	%rax, %rdi
	call	_Unwind_Resume@PLT
.LEHE60:
.L132:
	addq	$392, %rsp
	popq	%rbx
	popq	%r12
	popq	%r13
	popq	%rbp
	.cfi_def_cfa 7, 8
	ret
	.cfi_endproc
.LFE3425:
	.section	.gcc_except_table
.LLSDA3425:
	.byte	0xff
	.byte	0xff
	.byte	0x1
	.uleb128 .LLSDACSE3425-.LLSDACSB3425
.LLSDACSB3425:
	.uleb128 .LEHB51-.LFB3425
	.uleb128 .LEHE51-.LEHB51
	.uleb128 .L124-.LFB3425
	.uleb128 0
	.uleb128 .LEHB52-.LFB3425
	.uleb128 .LEHE52-.LEHB52
	.uleb128 .L125-.LFB3425
	.uleb128 0
	.uleb128 .LEHB53-.LFB3425
	.uleb128 .LEHE53-.LEHB53
	.uleb128 .L126-.LFB3425
	.uleb128 0
	.uleb128 .LEHB54-.LFB3425
	.uleb128 .LEHE54-.LEHB54
	.uleb128 .L127-.LFB3425
	.uleb128 0
	.uleb128 .LEHB55-.LFB3425
	.uleb128 .LEHE55-.LEHB55
	.uleb128 .L126-.LFB3425
	.uleb128 0
	.uleb128 .LEHB56-.LFB3425
	.uleb128 .LEHE56-.LEHB56
	.uleb128 .L128-.LFB3425
	.uleb128 0
	.uleb128 .LEHB57-.LFB3425
	.uleb128 .LEHE57-.LEHB57
	.uleb128 .L129-.LFB3425
	.uleb128 0
	.uleb128 .LEHB58-.LFB3425
	.uleb128 .LEHE58-.LEHB58
	.uleb128 .L130-.LFB3425
	.uleb128 0
	.uleb128 .LEHB59-.LFB3425
	.uleb128 .LEHE59-.LEHB59
	.uleb128 .L131-.LFB3425
	.uleb128 0
	.uleb128 .LEHB60-.LFB3425
	.uleb128 .LEHE60-.LEHB60
	.uleb128 0
	.uleb128 0
.LLSDACSE3425:
	.text
	.size	_Z5main2v, .-_Z5main2v
	.section	.rodata
	.align 8
.LC17:
	.string	"Ucitavanje matrice iz datoteke '"
.LC18:
	.string	"' nije uspjelo!"
	.align 8
.LC19:
	.string	"Duljine redaka matrice se ne podudaraju! Stajem!"
	.section	.text._ZN7MatricaIdEC2ENSt7__cxx1112basic_stringIcSt11char_traitsIcESaIcEEE,"axG",@progbits,_ZN7MatricaIdEC5ENSt7__cxx1112basic_stringIcSt11char_traitsIcESaIcEEE,comdat
	.align 2
	.weak	_ZN7MatricaIdEC2ENSt7__cxx1112basic_stringIcSt11char_traitsIcESaIcEEE
	.type	_ZN7MatricaIdEC2ENSt7__cxx1112basic_stringIcSt11char_traitsIcESaIcEEE, @function
_ZN7MatricaIdEC2ENSt7__cxx1112basic_stringIcSt11char_traitsIcESaIcEEE:
.LFB3706:
	.cfi_startproc
	.cfi_personality 0x9b,DW.ref.__gxx_personality_v0
	.cfi_lsda 0x1b,.LLSDA3706
	pushq	%rbp
	.cfi_def_cfa_offset 16
	.cfi_offset 6, -16
	movq	%rsp, %rbp
	.cfi_def_cfa_register 6
	pushq	%rbx
	subq	$632, %rsp
	.cfi_offset 3, -24
	movq	%rdi, -632(%rbp)
	movq	%rsi, -640(%rbp)
	leaq	16+_ZTV7MatricaIdE(%rip), %rdx
	movq	-632(%rbp), %rax
	movq	%rdx, (%rax)
	movq	-632(%rbp), %rax
	addq	$8, %rax
	movq	%rax, %rdi
	call	_ZNSt6vectorIS_IdSaIdEESaIS1_EEC1Ev
	movq	-632(%rbp), %rax
	addq	$32, %rax
	movq	%rax, %rdi
	call	_ZNSt6vectorImSaImEEC1Ev
	movq	-640(%rbp), %rcx
	leaq	-592(%rbp), %rax
	movl	$8, %edx
	movq	%rcx, %rsi
	movq	%rax, %rdi
.LEHB61:
	call	_ZNSt14basic_ifstreamIcSt11char_traitsIcEEC1ERKNSt7__cxx1112basic_stringIcS1_SaIcEEESt13_Ios_Openmode@PLT
.LEHE61:
	leaq	-592(%rbp), %rax
	addq	$256, %rax
	movq	%rax, %rdi
.LEHB62:
	call	_ZNKSt9basic_iosIcSt11char_traitsIcEEntEv@PLT
	testb	%al, %al
	je	.L153
	leaq	.LC17(%rip), %rsi
	leaq	_ZSt4cerr(%rip), %rdi
	call	_ZStlsISt11char_traitsIcEERSt13basic_ostreamIcT_ES5_PKc@PLT
	movq	%rax, %rdx
	movq	-640(%rbp), %rax
	movq	%rax, %rsi
	movq	%rdx, %rdi
	call	_ZStlsIcSt11char_traitsIcESaIcEERSt13basic_ostreamIT_T0_ES7_RKNSt7__cxx1112basic_stringIS4_S5_T1_EE@PLT
	leaq	.LC18(%rip), %rsi
	movq	%rax, %rdi
	call	_ZStlsISt11char_traitsIcEERSt13basic_ostreamIcT_ES5_PKc@PLT
	movq	%rax, %rdx
	movq	_ZSt4endlIcSt11char_traitsIcEERSt13basic_ostreamIT_T0_ES6_@GOTPCREL(%rip), %rax
	movq	%rax, %rsi
	movq	%rdx, %rdi
	call	_ZNSolsEPFRSoS_E@PLT
.L153:
	leaq	-592(%rbp), %rax
	addq	$256, %rax
	movq	%rax, %rdi
	call	_ZNKSt9basic_iosIcSt11char_traitsIcEEcvbEv@PLT
.LEHE62:
	testb	%al, %al
	je	.L135
	leaq	-624(%rbp), %rax
	movq	%rax, %rdi
	call	_ZNSt7__cxx1112basic_stringIcSt11char_traitsIcESaIcEEC1Ev@PLT
	leaq	-624(%rbp), %rdx
	leaq	-592(%rbp), %rax
	movq	%rdx, %rsi
	movq	%rax, %rdi
.LEHB63:
	call	_ZSt7getlineIcSt11char_traitsIcESaIcEERSt13basic_istreamIT_T0_ES7_RNSt7__cxx1112basic_stringIS4_S5_T1_EE@PLT
	leaq	-592(%rbp), %rax
	addq	$256, %rax
	movq	%rax, %rdi
	call	_ZNKSt9basic_iosIcSt11char_traitsIcEE3eofEv@PLT
	testb	%al, %al
	jne	.L136
	leaq	-624(%rbp), %rax
	movq	%rax, %rdi
	call	_ZNKSt7__cxx1112basic_stringIcSt11char_traitsIcESaIcEE5emptyEv@PLT
	testb	%al, %al
	je	.L137
.L136:
	movl	$1, %eax
	jmp	.L138
.L137:
	movl	$0, %eax
.L138:
	testb	%al, %al
	je	.L139
	movl	$0, %ebx
	jmp	.L140
.L139:
	leaq	-64(%rbp), %rax
	leaq	-624(%rbp), %rdx
	movq	%rdx, %rsi
	movq	%rax, %rdi
	call	_ZN7MatricaIdE5splitERNSt7__cxx1112basic_stringIcSt11char_traitsIcESaIcEEE
.LEHE63:
	leaq	-64(%rbp), %rax
	movq	%rax, %rdi
	call	_ZNKSt6vectorIdSaIdEE4sizeEv
	testq	%rax, %rax
	sete	%al
	testb	%al, %al
	je	.L141
	movl	$0, %ebx
	jmp	.L142
.L141:
	movq	-632(%rbp), %rax
	leaq	8(%rax), %rdx
	leaq	-64(%rbp), %rax
	movq	%rax, %rsi
	movq	%rdx, %rdi
.LEHB64:
	call	_ZNSt6vectorIS_IdSaIdEESaIS1_EE9push_backERKS1_
	movq	-632(%rbp), %rax
	addq	$8, %rax
	movq	%rax, %rdi
	call	_ZNKSt6vectorIS_IdSaIdEESaIS1_EE4sizeEv
	movq	%rax, -32(%rbp)
	cmpq	$1, -32(%rbp)
	jbe	.L143
	movq	-632(%rbp), %rax
	addq	$8, %rax
	movl	$0, %esi
	movq	%rax, %rdi
	call	_ZNSt6vectorIS_IdSaIdEESaIS1_EEixEm
	movq	%rax, %rdi
	call	_ZNKSt6vectorIdSaIdEE4sizeEv
	movq	%rax, %rbx
	movq	-32(%rbp), %rax
	leaq	-1(%rax), %rdx
	movq	-632(%rbp), %rax
	addq	$8, %rax
	movq	%rdx, %rsi
	movq	%rax, %rdi
	call	_ZNSt6vectorIS_IdSaIdEESaIS1_EEixEm
	movq	%rax, %rdi
	call	_ZNKSt6vectorIdSaIdEE4sizeEv
	cmpq	%rax, %rbx
	je	.L143
	movl	$1, %eax
	jmp	.L144
.L143:
	movl	$0, %eax
.L144:
	testb	%al, %al
	je	.L145
	leaq	.LC19(%rip), %rsi
	leaq	_ZSt4cerr(%rip), %rdi
	call	_ZStlsISt11char_traitsIcEERSt13basic_ostreamIcT_ES5_PKc@PLT
	movq	%rax, %rdx
	movq	_ZSt4endlIcSt11char_traitsIcEERSt13basic_ostreamIT_T0_ES6_@GOTPCREL(%rip), %rax
	movq	%rax, %rsi
	movq	%rdx, %rdi
	call	_ZNSolsEPFRSoS_E@PLT
.LEHE64:
.L145:
	movl	$1, %ebx
.L142:
	leaq	-64(%rbp), %rax
	movq	%rax, %rdi
	call	_ZNSt6vectorIdSaIdEED1Ev
	cmpl	$1, %ebx
	je	.L165
	movl	$1, %ebx
	jmp	.L140
.L165:
	nop
	movl	$2, %ebx
.L140:
	leaq	-624(%rbp), %rax
	movq	%rax, %rdi
	call	_ZNSt7__cxx1112basic_stringIcSt11char_traitsIcESaIcEED1Ev@PLT
	testl	%ebx, %ebx
	je	.L135
	cmpl	$2, %ebx
	nop
	jmp	.L153
.L135:
	movq	-632(%rbp), %rax
	leaq	32(%rax), %rbx
	movq	-632(%rbp), %rax
	addq	$8, %rax
	movq	%rax, %rdi
	call	_ZNKSt6vectorIS_IdSaIdEESaIS1_EE4sizeEv
	movq	%rax, %rsi
	movq	%rbx, %rdi
.LEHB65:
	call	_ZNSt6vectorImSaImEE6resizeEm
.LEHE65:
	movl	$0, -20(%rbp)
.L155:
	movl	-20(%rbp), %eax
	movslq	%eax, %rbx
	movq	-632(%rbp), %rax
	addq	$32, %rax
	movq	%rax, %rdi
	call	_ZNKSt6vectorImSaImEE4sizeEv
	cmpq	%rax, %rbx
	setb	%al
	testb	%al, %al
	je	.L154
	movl	-20(%rbp), %eax
	cltq
	movq	-632(%rbp), %rdx
	addq	$32, %rdx
	movq	%rax, %rsi
	movq	%rdx, %rdi
	call	_ZNSt6vectorImSaImEEixEm
	movq	%rax, %rdx
	movl	-20(%rbp), %eax
	cltq
	movq	%rax, (%rdx)
	addl	$1, -20(%rbp)
	jmp	.L155
.L154:
	leaq	-592(%rbp), %rax
	movq	%rax, %rdi
	call	_ZNSt14basic_ifstreamIcSt11char_traitsIcEED1Ev@PLT
	jmp	.L164
.L163:
	movq	%rax, %rbx
	leaq	-64(%rbp), %rax
	movq	%rax, %rdi
	call	_ZNSt6vectorIdSaIdEED1Ev
	jmp	.L157
.L162:
	movq	%rax, %rbx
.L157:
	leaq	-624(%rbp), %rax
	movq	%rax, %rdi
	call	_ZNSt7__cxx1112basic_stringIcSt11char_traitsIcESaIcEED1Ev@PLT
	jmp	.L158
.L161:
	movq	%rax, %rbx
.L158:
	leaq	-592(%rbp), %rax
	movq	%rax, %rdi
	call	_ZNSt14basic_ifstreamIcSt11char_traitsIcEED1Ev@PLT
	jmp	.L159
.L160:
	movq	%rax, %rbx
.L159:
	movq	-632(%rbp), %rax
	addq	$32, %rax
	movq	%rax, %rdi
	call	_ZNSt6vectorImSaImEED1Ev
	movq	-632(%rbp), %rax
	addq	$8, %rax
	movq	%rax, %rdi
	call	_ZNSt6vectorIS_IdSaIdEESaIS1_EED1Ev
	movq	%rbx, %rax
	movq	%rax, %rdi
.LEHB66:
	call	_Unwind_Resume@PLT
.LEHE66:
.L164:
	addq	$632, %rsp
	popq	%rbx
	popq	%rbp
	.cfi_def_cfa 7, 8
	ret
	.cfi_endproc
.LFE3706:
	.section	.gcc_except_table
.LLSDA3706:
	.byte	0xff
	.byte	0xff
	.byte	0x1
	.uleb128 .LLSDACSE3706-.LLSDACSB3706
.LLSDACSB3706:
	.uleb128 .LEHB61-.LFB3706
	.uleb128 .LEHE61-.LEHB61
	.uleb128 .L160-.LFB3706
	.uleb128 0
	.uleb128 .LEHB62-.LFB3706
	.uleb128 .LEHE62-.LEHB62
	.uleb128 .L161-.LFB3706
	.uleb128 0
	.uleb128 .LEHB63-.LFB3706
	.uleb128 .LEHE63-.LEHB63
	.uleb128 .L162-.LFB3706
	.uleb128 0
	.uleb128 .LEHB64-.LFB3706
	.uleb128 .LEHE64-.LEHB64
	.uleb128 .L163-.LFB3706
	.uleb128 0
	.uleb128 .LEHB65-.LFB3706
	.uleb128 .LEHE65-.LEHB65
	.uleb128 .L161-.LFB3706
	.uleb128 0
	.uleb128 .LEHB66-.LFB3706
	.uleb128 .LEHE66-.LEHB66
	.uleb128 0
	.uleb128 0
.LLSDACSE3706:
	.section	.text._ZN7MatricaIdEC2ENSt7__cxx1112basic_stringIcSt11char_traitsIcESaIcEEE,"axG",@progbits,_ZN7MatricaIdEC5ENSt7__cxx1112basic_stringIcSt11char_traitsIcESaIcEEE,comdat
	.size	_ZN7MatricaIdEC2ENSt7__cxx1112basic_stringIcSt11char_traitsIcESaIcEEE, .-_ZN7MatricaIdEC2ENSt7__cxx1112basic_stringIcSt11char_traitsIcESaIcEEE
	.weak	_ZN7MatricaIdEC1ENSt7__cxx1112basic_stringIcSt11char_traitsIcESaIcEEE
	.set	_ZN7MatricaIdEC1ENSt7__cxx1112basic_stringIcSt11char_traitsIcESaIcEEE,_ZN7MatricaIdEC2ENSt7__cxx1112basic_stringIcSt11char_traitsIcESaIcEEE
	.section	.text._ZN7MatricaIdED2Ev,"axG",@progbits,_ZN7MatricaIdED5Ev,comdat
	.align 2
	.weak	_ZN7MatricaIdED2Ev
	.type	_ZN7MatricaIdED2Ev, @function
_ZN7MatricaIdED2Ev:
.LFB3709:
	.cfi_startproc
	pushq	%rbp
	.cfi_def_cfa_offset 16
	.cfi_offset 6, -16
	movq	%rsp, %rbp
	.cfi_def_cfa_register 6
	subq	$16, %rsp
	movq	%rdi, -8(%rbp)
	leaq	16+_ZTV7MatricaIdE(%rip), %rdx
	movq	-8(%rbp), %rax
	movq	%rdx, (%rax)
	movq	-8(%rbp), %rax
	addq	$32, %rax
	movq	%rax, %rdi
	call	_ZNSt6vectorImSaImEED1Ev
	movq	-8(%rbp), %rax
	addq	$8, %rax
	movq	%rax, %rdi
	call	_ZNSt6vectorIS_IdSaIdEESaIS1_EED1Ev
	nop
	leave
	.cfi_def_cfa 7, 8
	ret
	.cfi_endproc
.LFE3709:
	.size	_ZN7MatricaIdED2Ev, .-_ZN7MatricaIdED2Ev
	.weak	_ZN7MatricaIdED1Ev
	.set	_ZN7MatricaIdED1Ev,_ZN7MatricaIdED2Ev
	.section	.text._ZN7MatricaIdED0Ev,"axG",@progbits,_ZN7MatricaIdED5Ev,comdat
	.align 2
	.weak	_ZN7MatricaIdED0Ev
	.type	_ZN7MatricaIdED0Ev, @function
_ZN7MatricaIdED0Ev:
.LFB3711:
	.cfi_startproc
	pushq	%rbp
	.cfi_def_cfa_offset 16
	.cfi_offset 6, -16
	movq	%rsp, %rbp
	.cfi_def_cfa_register 6
	subq	$16, %rsp
	movq	%rdi, -8(%rbp)
	movq	-8(%rbp), %rax
	movq	%rax, %rdi
	call	_ZN7MatricaIdED1Ev
	movq	-8(%rbp), %rax
	movl	$56, %esi
	movq	%rax, %rdi
	call	_ZdlPvm@PLT
	leave
	.cfi_def_cfa 7, 8
	ret
	.cfi_endproc
.LFE3711:
	.size	_ZN7MatricaIdED0Ev, .-_ZN7MatricaIdED0Ev
	.section	.rodata
.LC20:
	.string	"("
.LC21:
	.string	", "
.LC22:
	.string	")"
	.section	.text._ZNK7MatricaIdE5ispisEv,"axG",@progbits,_ZNK7MatricaIdE5ispisEv,comdat
	.align 2
	.weak	_ZNK7MatricaIdE5ispisEv
	.type	_ZNK7MatricaIdE5ispisEv, @function
_ZNK7MatricaIdE5ispisEv:
.LFB3712:
	.cfi_startproc
	pushq	%rbp
	.cfi_def_cfa_offset 16
	.cfi_offset 6, -16
	movq	%rsp, %rbp
	.cfi_def_cfa_register 6
	pushq	%rbx
	subq	$40, %rsp
	.cfi_offset 3, -24
	movq	%rdi, -40(%rbp)
	movq	-40(%rbp), %rax
	movq	%rax, %rdi
	call	_ZNK7MatricaIdE3dimEv
	movq	%rax, -32(%rbp)
	leaq	.LC20(%rip), %rsi
	leaq	_ZSt4cout(%rip), %rdi
	call	_ZStlsISt11char_traitsIcEERSt13basic_ostreamIcT_ES5_PKc@PLT
	movq	%rax, %rdx
	movl	-32(%rbp), %eax
	movl	%eax, %esi
	movq	%rdx, %rdi
	call	_ZNSolsEi@PLT
	leaq	.LC21(%rip), %rsi
	movq	%rax, %rdi
	call	_ZStlsISt11char_traitsIcEERSt13basic_ostreamIcT_ES5_PKc@PLT
	movq	%rax, %rdx
	movl	-28(%rbp), %eax
	movl	%eax, %esi
	movq	%rdx, %rdi
	call	_ZNSolsEi@PLT
	leaq	.LC22(%rip), %rsi
	movq	%rax, %rdi
	call	_ZStlsISt11char_traitsIcEERSt13basic_ostreamIcT_ES5_PKc@PLT
	movq	%rax, %rdx
	movq	_ZSt4endlIcSt11char_traitsIcEERSt13basic_ostreamIT_T0_ES6_@GOTPCREL(%rip), %rax
	movq	%rax, %rsi
	movq	%rdx, %rdi
	call	_ZNSolsEPFRSoS_E@PLT
	movl	$0, -20(%rbp)
.L172:
	movl	-32(%rbp), %eax
	cmpl	%eax, -20(%rbp)
	jge	.L169
	movl	$0, -24(%rbp)
.L171:
	movl	-28(%rbp), %eax
	cmpl	%eax, -24(%rbp)
	jge	.L170
	movl	-24(%rbp), %eax
	movslq	%eax, %rbx
	movl	-20(%rbp), %edx
	movq	-40(%rbp), %rax
	movl	%edx, %esi
	movq	%rax, %rdi
	call	_ZNK7MatricaIdEixEi
	movq	%rbx, %rsi
	movq	%rax, %rdi
	call	_ZNKSt6vectorIdSaIdEEixEm
	movq	(%rax), %rax
	movq	%rax, -48(%rbp)
	movsd	-48(%rbp), %xmm0
	leaq	_ZSt4cout(%rip), %rdi
	call	_ZNSolsEd@PLT
	movl	$9, %esi
	movq	%rax, %rdi
	call	_ZStlsISt11char_traitsIcEERSt13basic_ostreamIcT_ES5_c@PLT
	addl	$1, -24(%rbp)
	jmp	.L171
.L170:
	movl	$10, %esi
	leaq	_ZSt4cout(%rip), %rdi
	call	_ZStlsISt11char_traitsIcEERSt13basic_ostreamIcT_ES5_c@PLT
	addl	$1, -20(%rbp)
	jmp	.L172
.L169:
	movq	_ZSt4endlIcSt11char_traitsIcEERSt13basic_ostreamIT_T0_ES6_@GOTPCREL(%rip), %rax
	movq	%rax, %rsi
	leaq	_ZSt4cout(%rip), %rdi
	call	_ZNSolsEPFRSoS_E@PLT
	movq	_ZSt4endlIcSt11char_traitsIcEERSt13basic_ostreamIT_T0_ES6_@GOTPCREL(%rip), %rax
	movq	%rax, %rsi
	leaq	_ZSt4cout(%rip), %rdi
	call	_ZNSolsEPFRSoS_E@PLT
	nop
	addq	$40, %rsp
	popq	%rbx
	popq	%rbp
	.cfi_def_cfa 7, 8
	ret
	.cfi_endproc
.LFE3712:
	.size	_ZNK7MatricaIdE5ispisEv, .-_ZNK7MatricaIdE5ispisEv
	.section	.text._ZNK7MatricaIdE1tEv,"axG",@progbits,_ZNK7MatricaIdE1tEv,comdat
	.align 2
	.weak	_ZNK7MatricaIdE1tEv
	.type	_ZNK7MatricaIdE1tEv, @function
_ZNK7MatricaIdE1tEv:
.LFB3717:
	.cfi_startproc
	.cfi_personality 0x9b,DW.ref.__gxx_personality_v0
	.cfi_lsda 0x1b,.LLSDA3717
	pushq	%rbp
	.cfi_def_cfa_offset 16
	.cfi_offset 6, -16
	movq	%rsp, %rbp
	.cfi_def_cfa_register 6
	pushq	%r12
	pushq	%rbx
	subq	$32, %rsp
	.cfi_offset 12, -24
	.cfi_offset 3, -32
	movq	%rdi, -40(%rbp)
	movq	%rsi, -48(%rbp)
	movq	-48(%rbp), %rax
	addq	$8, %rax
	movq	%rax, %rdi
	call	_ZNKSt6vectorIS_IdSaIdEESaIS1_EE4sizeEv
	movl	%eax, %ebx
	movq	-48(%rbp), %rax
	addq	$8, %rax
	movl	$0, %esi
	movq	%rax, %rdi
	call	_ZNKSt6vectorIS_IdSaIdEESaIS1_EEixEm
	movq	%rax, %rdi
	call	_ZNKSt6vectorIdSaIdEE4sizeEv
	movl	%eax, %ecx
	movq	-40(%rbp), %rax
	movl	%ebx, %edx
	movl	%ecx, %esi
	movq	%rax, %rdi
.LEHB67:
	call	_ZN7MatricaIdEC1Eii
.LEHE67:
	movl	$0, -20(%rbp)
.L177:
	movl	-20(%rbp), %eax
	movslq	%eax, %rbx
	movq	-48(%rbp), %rax
	addq	$8, %rax
	movq	%rax, %rdi
	call	_ZNKSt6vectorIS_IdSaIdEESaIS1_EE4sizeEv
	cmpq	%rax, %rbx
	setb	%al
	testb	%al, %al
	je	.L181
	movl	$0, -24(%rbp)
.L176:
	movl	-24(%rbp), %eax
	movslq	%eax, %rbx
	movl	-20(%rbp), %eax
	cltq
	movq	-48(%rbp), %rdx
	addq	$8, %rdx
	movq	%rax, %rsi
	movq	%rdx, %rdi
	call	_ZNKSt6vectorIS_IdSaIdEESaIS1_EEixEm
	movq	%rax, %rdi
	call	_ZNKSt6vectorIdSaIdEE4sizeEv
	cmpq	%rax, %rbx
	setb	%al
	testb	%al, %al
	je	.L175
	movl	-24(%rbp), %eax
	movslq	%eax, %rbx
	movl	-20(%rbp), %edx
	movq	-48(%rbp), %rax
	movl	%edx, %esi
	movq	%rax, %rdi
.LEHB68:
	call	_ZNK7MatricaIdEixEi
	movq	%rbx, %rsi
	movq	%rax, %rdi
	call	_ZNKSt6vectorIdSaIdEEixEm
	movq	%rax, %r12
	movl	-20(%rbp), %eax
	movslq	%eax, %rbx
	movl	-24(%rbp), %edx
	movq	-40(%rbp), %rax
	movl	%edx, %esi
	movq	%rax, %rdi
	call	_ZN7MatricaIdEixEi
.LEHE68:
	movq	%rbx, %rsi
	movq	%rax, %rdi
	call	_ZNSt6vectorIdSaIdEEixEm
	movsd	(%r12), %xmm0
	movsd	%xmm0, (%rax)
	addl	$1, -24(%rbp)
	jmp	.L176
.L175:
	addl	$1, -20(%rbp)
	jmp	.L177
.L180:
	movq	%rax, %rbx
	movq	-40(%rbp), %rax
	movq	%rax, %rdi
	call	_ZN7MatricaIdED1Ev
	movq	%rbx, %rax
	movq	%rax, %rdi
.LEHB69:
	call	_Unwind_Resume@PLT
.LEHE69:
.L181:
	nop
	movq	-40(%rbp), %rax
	addq	$32, %rsp
	popq	%rbx
	popq	%r12
	popq	%rbp
	.cfi_def_cfa 7, 8
	ret
	.cfi_endproc
.LFE3717:
	.section	.gcc_except_table
.LLSDA3717:
	.byte	0xff
	.byte	0xff
	.byte	0x1
	.uleb128 .LLSDACSE3717-.LLSDACSB3717
.LLSDACSB3717:
	.uleb128 .LEHB67-.LFB3717
	.uleb128 .LEHE67-.LEHB67
	.uleb128 0
	.uleb128 0
	.uleb128 .LEHB68-.LFB3717
	.uleb128 .LEHE68-.LEHB68
	.uleb128 .L180-.LFB3717
	.uleb128 0
	.uleb128 .LEHB69-.LFB3717
	.uleb128 .LEHE69-.LEHB69
	.uleb128 0
	.uleb128 0
.LLSDACSE3717:
	.section	.text._ZNK7MatricaIdE1tEv,"axG",@progbits,_ZNK7MatricaIdE1tEv,comdat
	.size	_ZNK7MatricaIdE1tEv, .-_ZNK7MatricaIdE1tEv
	.section	.text._ZNK7MatricaIdEmlIiEES0_T_,"axG",@progbits,_ZNK7MatricaIdEmlIiEES0_T_,comdat
	.align 2
	.weak	_ZNK7MatricaIdEmlIiEES0_T_
	.type	_ZNK7MatricaIdEmlIiEES0_T_, @function
_ZNK7MatricaIdEmlIiEES0_T_:
.LFB3721:
	.cfi_startproc
	.cfi_personality 0x9b,DW.ref.__gxx_personality_v0
	.cfi_lsda 0x1b,.LLSDA3721
	pushq	%rbp
	.cfi_def_cfa_offset 16
	.cfi_offset 6, -16
	movq	%rsp, %rbp
	.cfi_def_cfa_register 6
	pushq	%rbx
	subq	$104, %rsp
	.cfi_offset 3, -24
	movq	%rdi, -88(%rbp)
	movq	%rsi, -96(%rbp)
	movl	%edx, -100(%rbp)
	movq	-96(%rbp), %rdx
	leaq	-80(%rbp), %rax
	movq	%rdx, %rsi
	movq	%rax, %rdi
.LEHB70:
	call	_ZN7MatricaIdEC1ERKS0_
.LEHE70:
	movl	-100(%rbp), %edx
	leaq	-80(%rbp), %rax
	movl	%edx, %esi
	movq	%rax, %rdi
	call	_ZN7MatricaIdEmLIiEERS0_T_
	movq	%rax, %rdx
	movq	-88(%rbp), %rax
	movq	%rdx, %rsi
	movq	%rax, %rdi
.LEHB71:
	call	_ZN7MatricaIdEC1ERKS0_
.LEHE71:
	nop
	leaq	-80(%rbp), %rax
	movq	%rax, %rdi
	call	_ZN7MatricaIdED1Ev
	jmp	.L186
.L185:
	movq	%rax, %rbx
	leaq	-80(%rbp), %rax
	movq	%rax, %rdi
	call	_ZN7MatricaIdED1Ev
	movq	%rbx, %rax
	movq	%rax, %rdi
.LEHB72:
	call	_Unwind_Resume@PLT
.LEHE72:
.L186:
	movq	-88(%rbp), %rax
	addq	$104, %rsp
	popq	%rbx
	popq	%rbp
	.cfi_def_cfa 7, 8
	ret
	.cfi_endproc
.LFE3721:
	.section	.gcc_except_table
.LLSDA3721:
	.byte	0xff
	.byte	0xff
	.byte	0x1
	.uleb128 .LLSDACSE3721-.LLSDACSB3721
.LLSDACSB3721:
	.uleb128 .LEHB70-.LFB3721
	.uleb128 .LEHE70-.LEHB70
	.uleb128 0
	.uleb128 0
	.uleb128 .LEHB71-.LFB3721
	.uleb128 .LEHE71-.LEHB71
	.uleb128 .L185-.LFB3721
	.uleb128 0
	.uleb128 .LEHB72-.LFB3721
	.uleb128 .LEHE72-.LEHB72
	.uleb128 0
	.uleb128 0
.LLSDACSE3721:
	.section	.text._ZNK7MatricaIdEmlIiEES0_T_,"axG",@progbits,_ZNK7MatricaIdEmlIiEES0_T_,comdat
	.size	_ZNK7MatricaIdEmlIiEES0_T_, .-_ZNK7MatricaIdEmlIiEES0_T_
	.section	.text._ZmlIidE7MatricaIT0_ET_RKS2_,"axG",@progbits,_ZmlIidE7MatricaIT0_ET_RKS2_,comdat
	.weak	_ZmlIidE7MatricaIT0_ET_RKS2_
	.type	_ZmlIidE7MatricaIT0_ET_RKS2_, @function
_ZmlIidE7MatricaIT0_ET_RKS2_:
.LFB3722:
	.cfi_startproc
	pushq	%rbp
	.cfi_def_cfa_offset 16
	.cfi_offset 6, -16
	movq	%rsp, %rbp
	.cfi_def_cfa_register 6
	subq	$32, %rsp
	movq	%rdi, -8(%rbp)
	movl	%esi, -12(%rbp)
	movq	%rdx, -24(%rbp)
	movq	-8(%rbp), %rax
	movl	-12(%rbp), %edx
	movq	-24(%rbp), %rcx
	movq	%rcx, %rsi
	movq	%rax, %rdi
	call	_ZNK7MatricaIdEmlIiEES0_T_
	movq	-8(%rbp), %rax
	leave
	.cfi_def_cfa 7, 8
	ret
	.cfi_endproc
.LFE3722:
	.size	_ZmlIidE7MatricaIT0_ET_RKS2_, .-_ZmlIidE7MatricaIT0_ET_RKS2_
	.section	.text._ZNK7MatricaIdEmlIdEES0_T_,"axG",@progbits,_ZNK7MatricaIdEmlIdEES0_T_,comdat
	.align 2
	.weak	_ZNK7MatricaIdEmlIdEES0_T_
	.type	_ZNK7MatricaIdEmlIdEES0_T_, @function
_ZNK7MatricaIdEmlIdEES0_T_:
.LFB3723:
	.cfi_startproc
	.cfi_personality 0x9b,DW.ref.__gxx_personality_v0
	.cfi_lsda 0x1b,.LLSDA3723
	pushq	%rbp
	.cfi_def_cfa_offset 16
	.cfi_offset 6, -16
	movq	%rsp, %rbp
	.cfi_def_cfa_register 6
	pushq	%rbx
	subq	$104, %rsp
	.cfi_offset 3, -24
	movq	%rdi, -88(%rbp)
	movq	%rsi, -96(%rbp)
	movsd	%xmm0, -104(%rbp)
	movq	-96(%rbp), %rdx
	leaq	-80(%rbp), %rax
	movq	%rdx, %rsi
	movq	%rax, %rdi
.LEHB73:
	call	_ZN7MatricaIdEC1ERKS0_
.LEHE73:
	movq	-104(%rbp), %rdx
	leaq	-80(%rbp), %rax
	movq	%rdx, -112(%rbp)
	movsd	-112(%rbp), %xmm0
	movq	%rax, %rdi
	call	_ZN7MatricaIdEmLIdEERS0_T_
	movq	%rax, %rdx
	movq	-88(%rbp), %rax
	movq	%rdx, %rsi
	movq	%rax, %rdi
.LEHB74:
	call	_ZN7MatricaIdEC1ERKS0_
.LEHE74:
	nop
	leaq	-80(%rbp), %rax
	movq	%rax, %rdi
	call	_ZN7MatricaIdED1Ev
	jmp	.L193
.L192:
	movq	%rax, %rbx
	leaq	-80(%rbp), %rax
	movq	%rax, %rdi
	call	_ZN7MatricaIdED1Ev
	movq	%rbx, %rax
	movq	%rax, %rdi
.LEHB75:
	call	_Unwind_Resume@PLT
.LEHE75:
.L193:
	movq	-88(%rbp), %rax
	addq	$104, %rsp
	popq	%rbx
	popq	%rbp
	.cfi_def_cfa 7, 8
	ret
	.cfi_endproc
.LFE3723:
	.section	.gcc_except_table
.LLSDA3723:
	.byte	0xff
	.byte	0xff
	.byte	0x1
	.uleb128 .LLSDACSE3723-.LLSDACSB3723
.LLSDACSB3723:
	.uleb128 .LEHB73-.LFB3723
	.uleb128 .LEHE73-.LEHB73
	.uleb128 0
	.uleb128 0
	.uleb128 .LEHB74-.LFB3723
	.uleb128 .LEHE74-.LEHB74
	.uleb128 .L192-.LFB3723
	.uleb128 0
	.uleb128 .LEHB75-.LFB3723
	.uleb128 .LEHE75-.LEHB75
	.uleb128 0
	.uleb128 0
.LLSDACSE3723:
	.section	.text._ZNK7MatricaIdEmlIdEES0_T_,"axG",@progbits,_ZNK7MatricaIdEmlIdEES0_T_,comdat
	.size	_ZNK7MatricaIdEmlIdEES0_T_, .-_ZNK7MatricaIdEmlIdEES0_T_
	.section	.text._ZmlIddE7MatricaIT0_ET_RKS2_,"axG",@progbits,_ZmlIddE7MatricaIT0_ET_RKS2_,comdat
	.weak	_ZmlIddE7MatricaIT0_ET_RKS2_
	.type	_ZmlIddE7MatricaIT0_ET_RKS2_, @function
_ZmlIddE7MatricaIT0_ET_RKS2_:
.LFB3724:
	.cfi_startproc
	pushq	%rbp
	.cfi_def_cfa_offset 16
	.cfi_offset 6, -16
	movq	%rsp, %rbp
	.cfi_def_cfa_register 6
	subq	$32, %rsp
	movq	%rdi, -8(%rbp)
	movsd	%xmm0, -16(%rbp)
	movq	%rsi, -24(%rbp)
	movq	-8(%rbp), %rax
	movq	-16(%rbp), %rcx
	movq	-24(%rbp), %rdx
	movq	%rcx, -32(%rbp)
	movsd	-32(%rbp), %xmm0
	movq	%rdx, %rsi
	movq	%rax, %rdi
	call	_ZNK7MatricaIdEmlIdEES0_T_
	movq	-8(%rbp), %rax
	leave
	.cfi_def_cfa 7, 8
	ret
	.cfi_endproc
.LFE3724:
	.size	_ZmlIddE7MatricaIT0_ET_RKS2_, .-_ZmlIddE7MatricaIT0_ET_RKS2_
	.section	.rodata
	.align 8
.LC23:
	.string	"Matrice nisu jednakih dimenzija!"
	.section	.text._ZNK7MatricaIdEeqERKS0_,"axG",@progbits,_ZNK7MatricaIdEeqERKS0_,comdat
	.align 2
	.weak	_ZNK7MatricaIdEeqERKS0_
	.type	_ZNK7MatricaIdEeqERKS0_, @function
_ZNK7MatricaIdEeqERKS0_:
.LFB3725:
	.cfi_startproc
	.cfi_personality 0x9b,DW.ref.__gxx_personality_v0
	.cfi_lsda 0x1b,.LLSDA3725
	pushq	%rbp
	.cfi_def_cfa_offset 16
	.cfi_offset 6, -16
	movq	%rsp, %rbp
	.cfi_def_cfa_register 6
	pushq	%r12
	pushq	%rbx
	subq	$96, %rsp
	.cfi_offset 12, -24
	.cfi_offset 3, -32
	movq	%rdi, -88(%rbp)
	movq	%rsi, -96(%rbp)
	movq	-88(%rbp), %rax
	movq	%rax, %rdi
.LEHB76:
	call	_ZNK7MatricaIdE3dimEv
	movq	%rax, -80(%rbp)
	movq	-96(%rbp), %rax
	movq	%rax, %rdi
	call	_ZNK7MatricaIdE3dimEv
	movq	%rax, -72(%rbp)
	leaq	-72(%rbp), %rdx
	leaq	-80(%rbp), %rax
	movq	%rdx, %rsi
	movq	%rax, %rdi
	call	_ZStneIiiEbRKSt4pairIT_T0_ES5_
.LEHE76:
	testb	%al, %al
	je	.L197
	movl	$40, %edi
	call	__cxa_allocate_exception@PLT
	movq	%rax, %rbx
	leaq	-25(%rbp), %rax
	movq	%rax, %rdi
	call	_ZNSaIcEC1Ev@PLT
	leaq	-25(%rbp), %rdx
	leaq	-64(%rbp), %rax
	leaq	.LC23(%rip), %rsi
	movq	%rax, %rdi
.LEHB77:
	call	_ZNSt7__cxx1112basic_stringIcSt11char_traitsIcESaIcEEC1EPKcRKS3_@PLT
.LEHE77:
	leaq	-64(%rbp), %rax
	movq	%rax, %rsi
	movq	%rbx, %rdi
.LEHB78:
	call	_ZN17Matrica_exceptionC1ENSt7__cxx1112basic_stringIcSt11char_traitsIcESaIcEEE
.LEHE78:
	leaq	-64(%rbp), %rax
	movq	%rax, %rdi
	call	_ZNSt7__cxx1112basic_stringIcSt11char_traitsIcESaIcEED1Ev@PLT
	leaq	-25(%rbp), %rax
	movq	%rax, %rdi
	call	_ZNSaIcED1Ev@PLT
	leaq	_ZN17Matrica_exceptionD1Ev(%rip), %rdx
	leaq	_ZTI17Matrica_exception(%rip), %rsi
	movq	%rbx, %rdi
.LEHB79:
	call	__cxa_throw@PLT
.L197:
	movl	$0, -20(%rbp)
.L203:
	movl	-80(%rbp), %eax
	cmpl	%eax, -20(%rbp)
	jge	.L198
	movl	$0, -24(%rbp)
.L202:
	movl	-76(%rbp), %eax
	cmpl	%eax, -24(%rbp)
	jge	.L199
	movl	-24(%rbp), %eax
	movslq	%eax, %rbx
	movl	-20(%rbp), %edx
	movq	-88(%rbp), %rax
	movl	%edx, %esi
	movq	%rax, %rdi
	call	_ZNK7MatricaIdEixEi
	movq	%rbx, %rsi
	movq	%rax, %rdi
	call	_ZNKSt6vectorIdSaIdEEixEm
	movsd	(%rax), %xmm1
	movsd	%xmm1, -104(%rbp)
	movl	-24(%rbp), %eax
	movslq	%eax, %rbx
	movl	-20(%rbp), %edx
	movq	-96(%rbp), %rax
	movl	%edx, %esi
	movq	%rax, %rdi
	call	_ZNK7MatricaIdEixEi
	movq	%rbx, %rsi
	movq	%rax, %rdi
	call	_ZNKSt6vectorIdSaIdEEixEm
	movsd	(%rax), %xmm0
	movsd	-104(%rbp), %xmm1
	subsd	%xmm0, %xmm1
	movapd	%xmm1, %xmm0
	call	_ZSt3absd
	ucomisd	.LC24(%rip), %xmm0
	setnb	%al
	testb	%al, %al
	je	.L200
	movl	$0, %eax
	jmp	.L209
.L200:
	addl	$1, -24(%rbp)
	jmp	.L202
.L199:
	addl	$1, -20(%rbp)
	jmp	.L203
.L198:
	movl	$1, %eax
	jmp	.L209
.L208:
	movq	%rax, %r12
	leaq	-64(%rbp), %rax
	movq	%rax, %rdi
	call	_ZNSt7__cxx1112basic_stringIcSt11char_traitsIcESaIcEED1Ev@PLT
	jmp	.L206
.L207:
	movq	%rax, %r12
.L206:
	leaq	-25(%rbp), %rax
	movq	%rax, %rdi
	call	_ZNSaIcED1Ev@PLT
	movq	%rbx, %rdi
	call	__cxa_free_exception@PLT
	movq	%r12, %rax
	movq	%rax, %rdi
	call	_Unwind_Resume@PLT
.LEHE79:
.L209:
	addq	$96, %rsp
	popq	%rbx
	popq	%r12
	popq	%rbp
	.cfi_def_cfa 7, 8
	ret
	.cfi_endproc
.LFE3725:
	.section	.gcc_except_table
.LLSDA3725:
	.byte	0xff
	.byte	0xff
	.byte	0x1
	.uleb128 .LLSDACSE3725-.LLSDACSB3725
.LLSDACSB3725:
	.uleb128 .LEHB76-.LFB3725
	.uleb128 .LEHE76-.LEHB76
	.uleb128 0
	.uleb128 0
	.uleb128 .LEHB77-.LFB3725
	.uleb128 .LEHE77-.LEHB77
	.uleb128 .L207-.LFB3725
	.uleb128 0
	.uleb128 .LEHB78-.LFB3725
	.uleb128 .LEHE78-.LEHB78
	.uleb128 .L208-.LFB3725
	.uleb128 0
	.uleb128 .LEHB79-.LFB3725
	.uleb128 .LEHE79-.LEHB79
	.uleb128 0
	.uleb128 0
.LLSDACSE3725:
	.section	.text._ZNK7MatricaIdEeqERKS0_,"axG",@progbits,_ZNK7MatricaIdEeqERKS0_,comdat
	.size	_ZNK7MatricaIdEeqERKS0_, .-_ZNK7MatricaIdEeqERKS0_
	.section	.rodata
.LC25:
	.string	"Matrice nisu ulancane!"
	.section	.text._ZNK7MatricaIdEmlERKS0_,"axG",@progbits,_ZNK7MatricaIdEmlERKS0_,comdat
	.align 2
	.weak	_ZNK7MatricaIdEmlERKS0_
	.type	_ZNK7MatricaIdEmlERKS0_, @function
_ZNK7MatricaIdEmlERKS0_:
.LFB3727:
	.cfi_startproc
	.cfi_personality 0x9b,DW.ref.__gxx_personality_v0
	.cfi_lsda 0x1b,.LLSDA3727
	pushq	%rbp
	.cfi_def_cfa_offset 16
	.cfi_offset 6, -16
	movq	%rsp, %rbp
	.cfi_def_cfa_register 6
	pushq	%r12
	pushq	%rbx
	subq	$208, %rsp
	.cfi_offset 12, -24
	.cfi_offset 3, -32
	movq	%rdi, -200(%rbp)
	movq	%rsi, -208(%rbp)
	movq	%rdx, -216(%rbp)
	movq	-216(%rbp), %rdx
	leaq	-160(%rbp), %rax
	movq	%rdx, %rsi
	movq	%rax, %rdi
.LEHB80:
	call	_ZN7MatricaIdEC1ERKS0_
.LEHE80:
	movq	-208(%rbp), %rdx
	leaq	-96(%rbp), %rax
	movq	%rdx, %rsi
	movq	%rax, %rdi
.LEHB81:
	call	_ZN7MatricaIdEC1ERKS0_
.LEHE81:
	leaq	-160(%rbp), %rdx
	leaq	-96(%rbp), %rax
	movq	%rdx, %rsi
	movq	%rax, %rdi
.LEHB82:
	call	_Z8ulancaneIdEb7MatricaIT_ES2_
.LEHE82:
	xorl	$1, %eax
	movl	%eax, %ebx
	leaq	-96(%rbp), %rax
	movq	%rax, %rdi
	call	_ZN7MatricaIdED1Ev
	leaq	-160(%rbp), %rax
	movq	%rax, %rdi
	call	_ZN7MatricaIdED1Ev
	testb	%bl, %bl
	je	.L211
	movl	$16, %edi
	call	__cxa_allocate_exception@PLT
	movq	%rax, %rbx
	leaq	.LC25(%rip), %rsi
	movq	%rbx, %rdi
.LEHB83:
	call	_ZNSt16invalid_argumentC1EPKc@PLT
.LEHE83:
	movq	_ZNSt16invalid_argumentD1Ev@GOTPCREL(%rip), %rax
	movq	%rax, %rdx
	leaq	_ZTISt16invalid_argument(%rip), %rsi
	movq	%rbx, %rdi
.LEHB84:
	call	__cxa_throw@PLT
.L211:
	movq	-208(%rbp), %rax
	movq	%rax, %rdi
	call	_ZNK7MatricaIdE3dimEv
	movq	%rax, -168(%rbp)
	movq	-216(%rbp), %rax
	movq	%rax, %rdi
	call	_ZNK7MatricaIdE3dimEv
	movq	%rax, -176(%rbp)
	movl	-172(%rbp), %edx
	movl	-168(%rbp), %ecx
	movq	-200(%rbp), %rax
	movl	%ecx, %esi
	movq	%rax, %rdi
	call	_ZN7MatricaIdEC1Eii
.LEHE84:
	movq	-200(%rbp), %rax
	movq	%rax, %rdi
.LEHB85:
	call	_ZNK7MatricaIdE3dimEv
	movq	%rax, -184(%rbp)
	movl	$0, -20(%rbp)
.L217:
	movl	-184(%rbp), %eax
	cmpl	%eax, -20(%rbp)
	jge	.L227
	movl	$0, -24(%rbp)
.L216:
	movl	-180(%rbp), %eax
	cmpl	%eax, -24(%rbp)
	jge	.L213
	movl	-24(%rbp), %eax
	movslq	%eax, %rbx
	movl	-20(%rbp), %edx
	movq	-200(%rbp), %rax
	movl	%edx, %esi
	movq	%rax, %rdi
	call	_ZN7MatricaIdEixEi
	movq	%rbx, %rsi
	movq	%rax, %rdi
	call	_ZNSt6vectorIdSaIdEEixEm
	pxor	%xmm0, %xmm0
	movsd	%xmm0, (%rax)
	movl	$0, -28(%rbp)
.L215:
	movl	-164(%rbp), %eax
	cmpl	%eax, -28(%rbp)
	jge	.L214
	movl	-28(%rbp), %eax
	movslq	%eax, %rbx
	movl	-20(%rbp), %edx
	movq	-208(%rbp), %rax
	movl	%edx, %esi
	movq	%rax, %rdi
	call	_ZNK7MatricaIdEixEi
	movq	%rbx, %rsi
	movq	%rax, %rdi
	call	_ZNKSt6vectorIdSaIdEEixEm
	movsd	(%rax), %xmm1
	movsd	%xmm1, -224(%rbp)
	movl	-24(%rbp), %eax
	movslq	%eax, %rbx
	movl	-28(%rbp), %edx
	movq	-216(%rbp), %rax
	movl	%edx, %esi
	movq	%rax, %rdi
	call	_ZNK7MatricaIdEixEi
	movq	%rbx, %rsi
	movq	%rax, %rdi
	call	_ZNKSt6vectorIdSaIdEEixEm
	movsd	(%rax), %xmm0
	mulsd	-224(%rbp), %xmm0
	movsd	%xmm0, -224(%rbp)
	movl	-24(%rbp), %eax
	movslq	%eax, %rbx
	movl	-20(%rbp), %edx
	movq	-200(%rbp), %rax
	movl	%edx, %esi
	movq	%rax, %rdi
	call	_ZN7MatricaIdEixEi
.LEHE85:
	movq	%rbx, %rsi
	movq	%rax, %rdi
	call	_ZNSt6vectorIdSaIdEEixEm
	movsd	(%rax), %xmm0
	addsd	-224(%rbp), %xmm0
	movsd	%xmm0, (%rax)
	addl	$1, -28(%rbp)
	jmp	.L215
.L214:
	addl	$1, -24(%rbp)
	jmp	.L216
.L213:
	addl	$1, -20(%rbp)
	jmp	.L217
.L224:
	movq	%rax, %rbx
	leaq	-96(%rbp), %rax
	movq	%rax, %rdi
	call	_ZN7MatricaIdED1Ev
	jmp	.L220
.L223:
	movq	%rax, %rbx
.L220:
	leaq	-160(%rbp), %rax
	movq	%rax, %rdi
	call	_ZN7MatricaIdED1Ev
	movq	%rbx, %rax
	movq	%rax, %rdi
.LEHB86:
	call	_Unwind_Resume@PLT
.L225:
	movq	%rax, %r12
	movq	%rbx, %rdi
	call	__cxa_free_exception@PLT
	movq	%r12, %rax
	movq	%rax, %rdi
	call	_Unwind_Resume@PLT
.L226:
	movq	%rax, %rbx
	movq	-200(%rbp), %rax
	movq	%rax, %rdi
	call	_ZN7MatricaIdED1Ev
	movq	%rbx, %rax
	movq	%rax, %rdi
	call	_Unwind_Resume@PLT
.LEHE86:
.L227:
	nop
	movq	-200(%rbp), %rax
	addq	$208, %rsp
	popq	%rbx
	popq	%r12
	popq	%rbp
	.cfi_def_cfa 7, 8
	ret
	.cfi_endproc
.LFE3727:
	.section	.gcc_except_table
.LLSDA3727:
	.byte	0xff
	.byte	0xff
	.byte	0x1
	.uleb128 .LLSDACSE3727-.LLSDACSB3727
.LLSDACSB3727:
	.uleb128 .LEHB80-.LFB3727
	.uleb128 .LEHE80-.LEHB80
	.uleb128 0
	.uleb128 0
	.uleb128 .LEHB81-.LFB3727
	.uleb128 .LEHE81-.LEHB81
	.uleb128 .L223-.LFB3727
	.uleb128 0
	.uleb128 .LEHB82-.LFB3727
	.uleb128 .LEHE82-.LEHB82
	.uleb128 .L224-.LFB3727
	.uleb128 0
	.uleb128 .LEHB83-.LFB3727
	.uleb128 .LEHE83-.LEHB83
	.uleb128 .L225-.LFB3727
	.uleb128 0
	.uleb128 .LEHB84-.LFB3727
	.uleb128 .LEHE84-.LEHB84
	.uleb128 0
	.uleb128 0
	.uleb128 .LEHB85-.LFB3727
	.uleb128 .LEHE85-.LEHB85
	.uleb128 .L226-.LFB3727
	.uleb128 0
	.uleb128 .LEHB86-.LFB3727
	.uleb128 .LEHE86-.LEHB86
	.uleb128 0
	.uleb128 0
.LLSDACSE3727:
	.section	.text._ZNK7MatricaIdEmlERKS0_,"axG",@progbits,_ZNK7MatricaIdEmlERKS0_,comdat
	.size	_ZNK7MatricaIdEmlERKS0_, .-_ZNK7MatricaIdEmlERKS0_
	.section	.text._ZN7MatricaIdE9jedinicnaEi,"axG",@progbits,_ZN7MatricaIdE9jedinicnaEi,comdat
	.weak	_ZN7MatricaIdE9jedinicnaEi
	.type	_ZN7MatricaIdE9jedinicnaEi, @function
_ZN7MatricaIdE9jedinicnaEi:
.LFB3731:
	.cfi_startproc
	.cfi_personality 0x9b,DW.ref.__gxx_personality_v0
	.cfi_lsda 0x1b,.LLSDA3731
	pushq	%rbp
	.cfi_def_cfa_offset 16
	.cfi_offset 6, -16
	movq	%rsp, %rbp
	.cfi_def_cfa_register 6
	pushq	%rbx
	subq	$40, %rsp
	.cfi_offset 3, -24
	movq	%rdi, -40(%rbp)
	movl	%esi, -44(%rbp)
	movl	-44(%rbp), %edx
	movl	-44(%rbp), %ecx
	movq	-40(%rbp), %rax
	movl	%ecx, %esi
	movq	%rax, %rdi
.LEHB87:
	call	_ZN7MatricaIdEC1Eii
.LEHE87:
	movl	$0, -20(%rbp)
.L230:
	movl	-20(%rbp), %eax
	cmpl	-44(%rbp), %eax
	jge	.L234
	movl	-20(%rbp), %eax
	movslq	%eax, %rbx
	movl	-20(%rbp), %edx
	movq	-40(%rbp), %rax
	movl	%edx, %esi
	movq	%rax, %rdi
.LEHB88:
	call	_ZN7MatricaIdEixEi
.LEHE88:
	movq	%rbx, %rsi
	movq	%rax, %rdi
	call	_ZNSt6vectorIdSaIdEEixEm
	movsd	.LC27(%rip), %xmm0
	movsd	%xmm0, (%rax)
	addl	$1, -20(%rbp)
	jmp	.L230
.L233:
	movq	%rax, %rbx
	movq	-40(%rbp), %rax
	movq	%rax, %rdi
	call	_ZN7MatricaIdED1Ev
	movq	%rbx, %rax
	movq	%rax, %rdi
.LEHB89:
	call	_Unwind_Resume@PLT
.LEHE89:
.L234:
	nop
	movq	-40(%rbp), %rax
	addq	$40, %rsp
	popq	%rbx
	popq	%rbp
	.cfi_def_cfa 7, 8
	ret
	.cfi_endproc
.LFE3731:
	.section	.gcc_except_table
.LLSDA3731:
	.byte	0xff
	.byte	0xff
	.byte	0x1
	.uleb128 .LLSDACSE3731-.LLSDACSB3731
.LLSDACSB3731:
	.uleb128 .LEHB87-.LFB3731
	.uleb128 .LEHE87-.LEHB87
	.uleb128 0
	.uleb128 0
	.uleb128 .LEHB88-.LFB3731
	.uleb128 .LEHE88-.LEHB88
	.uleb128 .L233-.LFB3731
	.uleb128 0
	.uleb128 .LEHB89-.LFB3731
	.uleb128 .LEHE89-.LEHB89
	.uleb128 0
	.uleb128 0
.LLSDACSE3731:
	.section	.text._ZN7MatricaIdE9jedinicnaEi,"axG",@progbits,_ZN7MatricaIdE9jedinicnaEi,comdat
	.size	_ZN7MatricaIdE9jedinicnaEi, .-_ZN7MatricaIdE9jedinicnaEi
	.section	.text._ZNK7MatricaIdEngEv,"axG",@progbits,_ZNK7MatricaIdEngEv,comdat
	.align 2
	.weak	_ZNK7MatricaIdEngEv
	.type	_ZNK7MatricaIdEngEv, @function
_ZNK7MatricaIdEngEv:
.LFB3732:
	.cfi_startproc
	pushq	%rbp
	.cfi_def_cfa_offset 16
	.cfi_offset 6, -16
	movq	%rsp, %rbp
	.cfi_def_cfa_register 6
	subq	$80, %rsp
	movq	%rdi, -72(%rbp)
	movq	%rsi, -80(%rbp)
	movq	-80(%rbp), %rdx
	movq	-72(%rbp), %rax
	movq	%rdx, %rsi
	movq	%rax, %rdi
	call	_ZN7MatricaIdEC1ERKS0_
	movq	-72(%rbp), %rax
	addq	$8, %rax
	movq	%rax, -8(%rbp)
	movq	-8(%rbp), %rax
	movq	%rax, %rdi
	call	_ZNSt6vectorIS_IdSaIdEESaIS1_EE5beginEv
	movq	%rax, -40(%rbp)
	movq	-8(%rbp), %rax
	movq	%rax, %rdi
	call	_ZNSt6vectorIS_IdSaIdEESaIS1_EE3endEv
	movq	%rax, -48(%rbp)
.L239:
	leaq	-48(%rbp), %rdx
	leaq	-40(%rbp), %rax
	movq	%rdx, %rsi
	movq	%rax, %rdi
	call	_ZN9__gnu_cxxneIPSt6vectorIdSaIdEES1_IS3_SaIS3_EEEEbRKNS_17__normal_iteratorIT_T0_EESC_
	testb	%al, %al
	je	.L241
	leaq	-40(%rbp), %rax
	movq	%rax, %rdi
	call	_ZNK9__gnu_cxx17__normal_iteratorIPSt6vectorIdSaIdEES1_IS3_SaIS3_EEEdeEv
	movq	%rax, -16(%rbp)
	movq	-16(%rbp), %rax
	movq	%rax, -24(%rbp)
	movq	-24(%rbp), %rax
	movq	%rax, %rdi
	call	_ZNSt6vectorIdSaIdEE5beginEv
	movq	%rax, -56(%rbp)
	movq	-24(%rbp), %rax
	movq	%rax, %rdi
	call	_ZNSt6vectorIdSaIdEE3endEv
	movq	%rax, -64(%rbp)
.L238:
	leaq	-64(%rbp), %rdx
	leaq	-56(%rbp), %rax
	movq	%rdx, %rsi
	movq	%rax, %rdi
	call	_ZN9__gnu_cxxneIPdSt6vectorIdSaIdEEEEbRKNS_17__normal_iteratorIT_T0_EESA_
	testb	%al, %al
	je	.L237
	leaq	-56(%rbp), %rax
	movq	%rax, %rdi
	call	_ZNK9__gnu_cxx17__normal_iteratorIPdSt6vectorIdSaIdEEEdeEv
	movq	%rax, -32(%rbp)
	movq	-32(%rbp), %rax
	movsd	(%rax), %xmm1
	movq	.LC28(%rip), %xmm0
	xorpd	%xmm1, %xmm0
	movq	-32(%rbp), %rax
	movsd	%xmm0, (%rax)
	leaq	-56(%rbp), %rax
	movq	%rax, %rdi
	call	_ZN9__gnu_cxx17__normal_iteratorIPdSt6vectorIdSaIdEEEppEv
	jmp	.L238
.L237:
	leaq	-40(%rbp), %rax
	movq	%rax, %rdi
	call	_ZN9__gnu_cxx17__normal_iteratorIPSt6vectorIdSaIdEES1_IS3_SaIS3_EEEppEv
	jmp	.L239
.L241:
	nop
	movq	-72(%rbp), %rax
	leave
	.cfi_def_cfa 7, 8
	ret
	.cfi_endproc
.LFE3732:
	.size	_ZNK7MatricaIdEngEv, .-_ZNK7MatricaIdEngEv
	.section	.text._ZN7MatricaIdEmIERKS0_,"axG",@progbits,_ZN7MatricaIdEmIERKS0_,comdat
	.align 2
	.weak	_ZN7MatricaIdEmIERKS0_
	.type	_ZN7MatricaIdEmIERKS0_, @function
_ZN7MatricaIdEmIERKS0_:
.LFB3733:
	.cfi_startproc
	.cfi_personality 0x9b,DW.ref.__gxx_personality_v0
	.cfi_lsda 0x1b,.LLSDA3733
	pushq	%rbp
	.cfi_def_cfa_offset 16
	.cfi_offset 6, -16
	movq	%rsp, %rbp
	.cfi_def_cfa_register 6
	pushq	%rbx
	subq	$88, %rsp
	.cfi_offset 3, -24
	movq	%rdi, -88(%rbp)
	movq	%rsi, -96(%rbp)
	leaq	-80(%rbp), %rax
	movq	-96(%rbp), %rdx
	movq	%rdx, %rsi
	movq	%rax, %rdi
.LEHB90:
	call	_ZNK7MatricaIdEngEv
.LEHE90:
	leaq	-80(%rbp), %rdx
	movq	-88(%rbp), %rax
	movq	%rdx, %rsi
	movq	%rax, %rdi
.LEHB91:
	call	_ZN7MatricaIdEpLERKS0_
.LEHE91:
	movq	%rax, %rbx
	leaq	-80(%rbp), %rax
	movq	%rax, %rdi
	call	_ZN7MatricaIdED1Ev
	movq	%rbx, %rax
	jmp	.L246
.L245:
	movq	%rax, %rbx
	leaq	-80(%rbp), %rax
	movq	%rax, %rdi
	call	_ZN7MatricaIdED1Ev
	movq	%rbx, %rax
	movq	%rax, %rdi
.LEHB92:
	call	_Unwind_Resume@PLT
.LEHE92:
.L246:
	addq	$88, %rsp
	popq	%rbx
	popq	%rbp
	.cfi_def_cfa 7, 8
	ret
	.cfi_endproc
.LFE3733:
	.section	.gcc_except_table
.LLSDA3733:
	.byte	0xff
	.byte	0xff
	.byte	0x1
	.uleb128 .LLSDACSE3733-.LLSDACSB3733
.LLSDACSB3733:
	.uleb128 .LEHB90-.LFB3733
	.uleb128 .LEHE90-.LEHB90
	.uleb128 0
	.uleb128 0
	.uleb128 .LEHB91-.LFB3733
	.uleb128 .LEHE91-.LEHB91
	.uleb128 .L245-.LFB3733
	.uleb128 0
	.uleb128 .LEHB92-.LFB3733
	.uleb128 .LEHE92-.LEHB92
	.uleb128 0
	.uleb128 0
.LLSDACSE3733:
	.section	.text._ZN7MatricaIdEmIERKS0_,"axG",@progbits,_ZN7MatricaIdEmIERKS0_,comdat
	.size	_ZN7MatricaIdEmIERKS0_, .-_ZN7MatricaIdEmIERKS0_
	.section	.text._ZStneIcSt11char_traitsIcESaIcEEbRKNSt7__cxx1112basic_stringIT_T0_T1_EEPKS5_,"axG",@progbits,_ZStneIcSt11char_traitsIcESaIcEEbRKNSt7__cxx1112basic_stringIT_T0_T1_EEPKS5_,comdat
	.weak	_ZStneIcSt11char_traitsIcESaIcEEbRKNSt7__cxx1112basic_stringIT_T0_T1_EEPKS5_
	.type	_ZStneIcSt11char_traitsIcESaIcEEbRKNSt7__cxx1112basic_stringIT_T0_T1_EEPKS5_, @function
_ZStneIcSt11char_traitsIcESaIcEEbRKNSt7__cxx1112basic_stringIT_T0_T1_EEPKS5_:
.LFB3734:
	.cfi_startproc
	pushq	%rbp
	.cfi_def_cfa_offset 16
	.cfi_offset 6, -16
	movq	%rsp, %rbp
	.cfi_def_cfa_register 6
	subq	$16, %rsp
	movq	%rdi, -8(%rbp)
	movq	%rsi, -16(%rbp)
	movq	-16(%rbp), %rdx
	movq	-8(%rbp), %rax
	movq	%rdx, %rsi
	movq	%rax, %rdi
	call	_ZSteqIcSt11char_traitsIcESaIcEEbRKNSt7__cxx1112basic_stringIT_T0_T1_EEPKS5_
	xorl	$1, %eax
	leave
	.cfi_def_cfa 7, 8
	ret
	.cfi_endproc
.LFE3734:
	.size	_ZStneIcSt11char_traitsIcESaIcEEbRKNSt7__cxx1112basic_stringIT_T0_T1_EEPKS5_, .-_ZStneIcSt11char_traitsIcESaIcEEbRKNSt7__cxx1112basic_stringIT_T0_T1_EEPKS5_
	.section	.text._ZN7MatricaIdEC2Ev,"axG",@progbits,_ZN7MatricaIdEC5Ev,comdat
	.align 2
	.weak	_ZN7MatricaIdEC2Ev
	.type	_ZN7MatricaIdEC2Ev, @function
_ZN7MatricaIdEC2Ev:
.LFB3737:
	.cfi_startproc
	pushq	%rbp
	.cfi_def_cfa_offset 16
	.cfi_offset 6, -16
	movq	%rsp, %rbp
	.cfi_def_cfa_register 6
	subq	$16, %rsp
	movq	%rdi, -8(%rbp)
	movq	-8(%rbp), %rax
	movl	$1, %esi
	movq	%rax, %rdi
	call	_ZN7MatricaIdEC1Ei
	nop
	leave
	.cfi_def_cfa 7, 8
	ret
	.cfi_endproc
.LFE3737:
	.size	_ZN7MatricaIdEC2Ev, .-_ZN7MatricaIdEC2Ev
	.weak	_ZN7MatricaIdEC1Ev
	.set	_ZN7MatricaIdEC1Ev,_ZN7MatricaIdEC2Ev
	.section	.text._ZSteqIcSt11char_traitsIcESaIcEEbRKNSt7__cxx1112basic_stringIT_T0_T1_EEPKS5_,"axG",@progbits,_ZSteqIcSt11char_traitsIcESaIcEEbRKNSt7__cxx1112basic_stringIT_T0_T1_EEPKS5_,comdat
	.weak	_ZSteqIcSt11char_traitsIcESaIcEEbRKNSt7__cxx1112basic_stringIT_T0_T1_EEPKS5_
	.type	_ZSteqIcSt11char_traitsIcESaIcEEbRKNSt7__cxx1112basic_stringIT_T0_T1_EEPKS5_, @function
_ZSteqIcSt11char_traitsIcESaIcEEbRKNSt7__cxx1112basic_stringIT_T0_T1_EEPKS5_:
.LFB3739:
	.cfi_startproc
	pushq	%rbp
	.cfi_def_cfa_offset 16
	.cfi_offset 6, -16
	movq	%rsp, %rbp
	.cfi_def_cfa_register 6
	subq	$16, %rsp
	movq	%rdi, -8(%rbp)
	movq	%rsi, -16(%rbp)
	movq	-16(%rbp), %rdx
	movq	-8(%rbp), %rax
	movq	%rdx, %rsi
	movq	%rax, %rdi
	call	_ZNKSt7__cxx1112basic_stringIcSt11char_traitsIcESaIcEE7compareEPKc@PLT
	testl	%eax, %eax
	sete	%al
	leave
	.cfi_def_cfa 7, 8
	ret
	.cfi_endproc
.LFE3739:
	.size	_ZSteqIcSt11char_traitsIcESaIcEEbRKNSt7__cxx1112basic_stringIT_T0_T1_EEPKS5_, .-_ZSteqIcSt11char_traitsIcESaIcEEbRKNSt7__cxx1112basic_stringIT_T0_T1_EEPKS5_
	.section	.rodata
.LC29:
	.string	"Matrica nije kvadratna!"
	.align 8
.LC30:
	.string	"Stozerni element je 0 ili priblizno nula! Stajem!"
.LC31:
	.string	"Sustav nije rjesiv!"
	.section	.text._ZNK7MatricaIdE16LU_dekompozicijaEv,"axG",@progbits,_ZNK7MatricaIdE16LU_dekompozicijaEv,comdat
	.align 2
	.weak	_ZNK7MatricaIdE16LU_dekompozicijaEv
	.type	_ZNK7MatricaIdE16LU_dekompozicijaEv, @function
_ZNK7MatricaIdE16LU_dekompozicijaEv:
.LFB3740:
	.cfi_startproc
	.cfi_personality 0x9b,DW.ref.__gxx_personality_v0
	.cfi_lsda 0x1b,.LLSDA3740
	pushq	%rbp
	.cfi_def_cfa_offset 16
	.cfi_offset 6, -16
	movq	%rsp, %rbp
	.cfi_def_cfa_register 6
	pushq	%r12
	pushq	%rbx
	subq	$192, %rsp
	.cfi_offset 12, -24
	.cfi_offset 3, -32
	movq	%rdi, -184(%rbp)
	movq	%rsi, -192(%rbp)
	movq	-192(%rbp), %rax
	movq	%rax, %rdi
.LEHB93:
	call	_ZNK7MatricaIdE9kvadratnaEv
.LEHE93:
	xorl	$1, %eax
	testb	%al, %al
	je	.L253
	movl	$40, %edi
	call	__cxa_allocate_exception@PLT
	movq	%rax, %rbx
	leaq	-129(%rbp), %rax
	movq	%rax, %rdi
	call	_ZNSaIcEC1Ev@PLT
	leaq	-129(%rbp), %rdx
	leaq	-176(%rbp), %rax
	leaq	.LC29(%rip), %rsi
	movq	%rax, %rdi
.LEHB94:
	call	_ZNSt7__cxx1112basic_stringIcSt11char_traitsIcESaIcEEC1EPKcRKS3_@PLT
.LEHE94:
	leaq	-176(%rbp), %rax
	movq	%rax, %rsi
	movq	%rbx, %rdi
.LEHB95:
	call	_ZN17Matrica_exceptionC1ENSt7__cxx1112basic_stringIcSt11char_traitsIcESaIcEEE
.LEHE95:
	leaq	-176(%rbp), %rax
	movq	%rax, %rdi
	call	_ZNSt7__cxx1112basic_stringIcSt11char_traitsIcESaIcEED1Ev@PLT
	leaq	-129(%rbp), %rax
	movq	%rax, %rdi
	call	_ZNSaIcED1Ev@PLT
	leaq	_ZN17Matrica_exceptionD1Ev(%rip), %rdx
	leaq	_ZTI17Matrica_exception(%rip), %rsi
	movq	%rbx, %rdi
.LEHB96:
	call	__cxa_throw@PLT
.L253:
	movq	-192(%rbp), %rdx
	movq	-184(%rbp), %rax
	movq	%rdx, %rsi
	movq	%rax, %rdi
	call	_ZN7MatricaIdEC1ERKS0_
.LEHE96:
	movq	-192(%rbp), %rax
	movq	%rax, %rdi
.LEHB97:
	call	_ZNK7MatricaIdE3dimEv
	movl	%eax, -32(%rbp)
	movl	$0, -20(%rbp)
.L260:
	movl	-32(%rbp), %eax
	subl	$1, %eax
	cmpl	%eax, -20(%rbp)
	jge	.L254
	movl	-20(%rbp), %eax
	movslq	%eax, %rbx
	movl	-20(%rbp), %edx
	movq	-184(%rbp), %rax
	movl	%edx, %esi
	movq	%rax, %rdi
	call	_ZN7MatricaIdEixEi
.LEHE97:
	movq	%rbx, %rsi
	movq	%rax, %rdi
	call	_ZNSt6vectorIdSaIdEEixEm
	movq	(%rax), %rax
	movq	%rax, -200(%rbp)
	movsd	-200(%rbp), %xmm0
	call	_ZSt3absd
	movapd	%xmm0, %xmm1
	movsd	.LC24(%rip), %xmm0
	ucomisd	%xmm1, %xmm0
	seta	%al
	testb	%al, %al
	je	.L255
	movl	$40, %edi
	call	__cxa_allocate_exception@PLT
	movq	%rax, %rbx
	leaq	-81(%rbp), %rax
	movq	%rax, %rdi
	call	_ZNSaIcEC1Ev@PLT
	leaq	-81(%rbp), %rdx
	leaq	-128(%rbp), %rax
	leaq	.LC30(%rip), %rsi
	movq	%rax, %rdi
.LEHB98:
	call	_ZNSt7__cxx1112basic_stringIcSt11char_traitsIcESaIcEEC1EPKcRKS3_@PLT
.LEHE98:
	leaq	-128(%rbp), %rax
	movq	%rax, %rsi
	movq	%rbx, %rdi
.LEHB99:
	call	_ZN17Matrica_exceptionC1ENSt7__cxx1112basic_stringIcSt11char_traitsIcESaIcEEE
.LEHE99:
	leaq	-128(%rbp), %rax
	movq	%rax, %rdi
	call	_ZNSt7__cxx1112basic_stringIcSt11char_traitsIcESaIcEED1Ev@PLT
	leaq	-81(%rbp), %rax
	movq	%rax, %rdi
	call	_ZNSaIcED1Ev@PLT
	leaq	_ZN17Matrica_exceptionD1Ev(%rip), %rdx
	leaq	_ZTI17Matrica_exception(%rip), %rsi
	movq	%rbx, %rdi
.LEHB100:
	call	__cxa_throw@PLT
.L255:
	movl	-20(%rbp), %eax
	addl	$1, %eax
	movl	%eax, -24(%rbp)
.L259:
	movl	-24(%rbp), %eax
	cmpl	-32(%rbp), %eax
	jge	.L256
	movl	-20(%rbp), %eax
	movslq	%eax, %rbx
	movl	-20(%rbp), %edx
	movq	-184(%rbp), %rax
	movl	%edx, %esi
	movq	%rax, %rdi
	call	_ZN7MatricaIdEixEi
	movq	%rbx, %rsi
	movq	%rax, %rdi
	call	_ZNSt6vectorIdSaIdEEixEm
	movsd	(%rax), %xmm2
	movsd	%xmm2, -200(%rbp)
	movl	-20(%rbp), %eax
	movslq	%eax, %rbx
	movl	-24(%rbp), %edx
	movq	-184(%rbp), %rax
	movl	%edx, %esi
	movq	%rax, %rdi
	call	_ZN7MatricaIdEixEi
	movq	%rbx, %rsi
	movq	%rax, %rdi
	call	_ZNSt6vectorIdSaIdEEixEm
	movsd	(%rax), %xmm0
	divsd	-200(%rbp), %xmm0
	movsd	%xmm0, (%rax)
	movl	-20(%rbp), %eax
	addl	$1, %eax
	movl	%eax, -28(%rbp)
.L258:
	movl	-28(%rbp), %eax
	cmpl	-32(%rbp), %eax
	jge	.L257
	movl	-20(%rbp), %eax
	movslq	%eax, %rbx
	movl	-24(%rbp), %edx
	movq	-184(%rbp), %rax
	movl	%edx, %esi
	movq	%rax, %rdi
	call	_ZN7MatricaIdEixEi
	movq	%rbx, %rsi
	movq	%rax, %rdi
	call	_ZNSt6vectorIdSaIdEEixEm
	movsd	(%rax), %xmm4
	movsd	%xmm4, -200(%rbp)
	movl	-28(%rbp), %eax
	movslq	%eax, %rbx
	movl	-20(%rbp), %edx
	movq	-184(%rbp), %rax
	movl	%edx, %esi
	movq	%rax, %rdi
	call	_ZN7MatricaIdEixEi
	movq	%rbx, %rsi
	movq	%rax, %rdi
	call	_ZNSt6vectorIdSaIdEEixEm
	movsd	(%rax), %xmm0
	mulsd	-200(%rbp), %xmm0
	movsd	%xmm0, -200(%rbp)
	movl	-28(%rbp), %eax
	movslq	%eax, %rbx
	movl	-24(%rbp), %edx
	movq	-184(%rbp), %rax
	movl	%edx, %esi
	movq	%rax, %rdi
	call	_ZN7MatricaIdEixEi
	movq	%rbx, %rsi
	movq	%rax, %rdi
	call	_ZNSt6vectorIdSaIdEEixEm
	movsd	(%rax), %xmm0
	subsd	-200(%rbp), %xmm0
	movsd	%xmm0, (%rax)
	addl	$1, -28(%rbp)
	jmp	.L258
.L257:
	addl	$1, -24(%rbp)
	jmp	.L259
.L256:
	addl	$1, -20(%rbp)
	jmp	.L260
.L254:
	movq	-184(%rbp), %rax
	movq	%rax, %rdi
	call	_ZNK7MatricaIdE18nule_na_dijagonaliEv
.LEHE100:
	testb	%al, %al
	je	.L277
	movl	$40, %edi
	call	__cxa_allocate_exception@PLT
	movq	%rax, %rbx
	leaq	-33(%rbp), %rax
	movq	%rax, %rdi
	call	_ZNSaIcEC1Ev@PLT
	leaq	-33(%rbp), %rdx
	leaq	-80(%rbp), %rax
	leaq	.LC31(%rip), %rsi
	movq	%rax, %rdi
.LEHB101:
	call	_ZNSt7__cxx1112basic_stringIcSt11char_traitsIcESaIcEEC1EPKcRKS3_@PLT
.LEHE101:
	leaq	-80(%rbp), %rax
	movq	%rax, %rsi
	movq	%rbx, %rdi
.LEHB102:
	call	_ZN17Matrica_exceptionC1ENSt7__cxx1112basic_stringIcSt11char_traitsIcESaIcEEE
.LEHE102:
	leaq	-80(%rbp), %rax
	movq	%rax, %rdi
	call	_ZNSt7__cxx1112basic_stringIcSt11char_traitsIcESaIcEED1Ev@PLT
	leaq	-33(%rbp), %rax
	movq	%rax, %rdi
	call	_ZNSaIcED1Ev@PLT
	leaq	_ZN17Matrica_exceptionD1Ev(%rip), %rdx
	leaq	_ZTI17Matrica_exception(%rip), %rsi
	movq	%rbx, %rdi
.LEHB103:
	call	__cxa_throw@PLT
.LEHE103:
.L271:
	movq	%rax, %r12
	leaq	-176(%rbp), %rax
	movq	%rax, %rdi
	call	_ZNSt7__cxx1112basic_stringIcSt11char_traitsIcESaIcEED1Ev@PLT
	jmp	.L264
.L270:
	movq	%rax, %r12
.L264:
	leaq	-129(%rbp), %rax
	movq	%rax, %rdi
	call	_ZNSaIcED1Ev@PLT
	movq	%rbx, %rdi
	call	__cxa_free_exception@PLT
	movq	%r12, %rax
	movq	%rax, %rdi
.LEHB104:
	call	_Unwind_Resume@PLT
.L274:
	movq	%rax, %r12
	leaq	-128(%rbp), %rax
	movq	%rax, %rdi
	call	_ZNSt7__cxx1112basic_stringIcSt11char_traitsIcESaIcEED1Ev@PLT
	jmp	.L266
.L273:
	movq	%rax, %r12
.L266:
	leaq	-81(%rbp), %rax
	movq	%rax, %rdi
	call	_ZNSaIcED1Ev@PLT
	movq	%rbx, %rdi
	call	__cxa_free_exception@PLT
	movq	%r12, %rbx
	jmp	.L267
.L276:
	movq	%rax, %r12
	leaq	-80(%rbp), %rax
	movq	%rax, %rdi
	call	_ZNSt7__cxx1112basic_stringIcSt11char_traitsIcESaIcEED1Ev@PLT
	jmp	.L269
.L275:
	movq	%rax, %r12
.L269:
	leaq	-33(%rbp), %rax
	movq	%rax, %rdi
	call	_ZNSaIcED1Ev@PLT
	movq	%rbx, %rdi
	call	__cxa_free_exception@PLT
	movq	%r12, %rbx
	jmp	.L267
.L272:
	movq	%rax, %rbx
.L267:
	movq	-184(%rbp), %rax
	movq	%rax, %rdi
	call	_ZN7MatricaIdED1Ev
	movq	%rbx, %rax
	movq	%rax, %rdi
	call	_Unwind_Resume@PLT
.LEHE104:
.L277:
	nop
	movq	-184(%rbp), %rax
	addq	$192, %rsp
	popq	%rbx
	popq	%r12
	popq	%rbp
	.cfi_def_cfa 7, 8
	ret
	.cfi_endproc
.LFE3740:
	.section	.gcc_except_table
.LLSDA3740:
	.byte	0xff
	.byte	0xff
	.byte	0x1
	.uleb128 .LLSDACSE3740-.LLSDACSB3740
.LLSDACSB3740:
	.uleb128 .LEHB93-.LFB3740
	.uleb128 .LEHE93-.LEHB93
	.uleb128 0
	.uleb128 0
	.uleb128 .LEHB94-.LFB3740
	.uleb128 .LEHE94-.LEHB94
	.uleb128 .L270-.LFB3740
	.uleb128 0
	.uleb128 .LEHB95-.LFB3740
	.uleb128 .LEHE95-.LEHB95
	.uleb128 .L271-.LFB3740
	.uleb128 0
	.uleb128 .LEHB96-.LFB3740
	.uleb128 .LEHE96-.LEHB96
	.uleb128 0
	.uleb128 0
	.uleb128 .LEHB97-.LFB3740
	.uleb128 .LEHE97-.LEHB97
	.uleb128 .L272-.LFB3740
	.uleb128 0
	.uleb128 .LEHB98-.LFB3740
	.uleb128 .LEHE98-.LEHB98
	.uleb128 .L273-.LFB3740
	.uleb128 0
	.uleb128 .LEHB99-.LFB3740
	.uleb128 .LEHE99-.LEHB99
	.uleb128 .L274-.LFB3740
	.uleb128 0
	.uleb128 .LEHB100-.LFB3740
	.uleb128 .LEHE100-.LEHB100
	.uleb128 .L272-.LFB3740
	.uleb128 0
	.uleb128 .LEHB101-.LFB3740
	.uleb128 .LEHE101-.LEHB101
	.uleb128 .L275-.LFB3740
	.uleb128 0
	.uleb128 .LEHB102-.LFB3740
	.uleb128 .LEHE102-.LEHB102
	.uleb128 .L276-.LFB3740
	.uleb128 0
	.uleb128 .LEHB103-.LFB3740
	.uleb128 .LEHE103-.LEHB103
	.uleb128 .L272-.LFB3740
	.uleb128 0
	.uleb128 .LEHB104-.LFB3740
	.uleb128 .LEHE104-.LEHB104
	.uleb128 0
	.uleb128 0
.LLSDACSE3740:
	.section	.text._ZNK7MatricaIdE16LU_dekompozicijaEv,"axG",@progbits,_ZNK7MatricaIdE16LU_dekompozicijaEv,comdat
	.size	_ZNK7MatricaIdE16LU_dekompozicijaEv, .-_ZNK7MatricaIdE16LU_dekompozicijaEv
	.section	.text._ZN7MatricaIdEaSEOS0_,"axG",@progbits,_ZN7MatricaIdEaSEOS0_,comdat
	.align 2
	.weak	_ZN7MatricaIdEaSEOS0_
	.type	_ZN7MatricaIdEaSEOS0_, @function
_ZN7MatricaIdEaSEOS0_:
.LFB3741:
	.cfi_startproc
	pushq	%rbp
	.cfi_def_cfa_offset 16
	.cfi_offset 6, -16
	movq	%rsp, %rbp
	.cfi_def_cfa_register 6
	subq	$16, %rsp
	movq	%rdi, -8(%rbp)
	movq	%rsi, -16(%rbp)
	movq	-16(%rbp), %rax
	leaq	8(%rax), %rdx
	movq	-8(%rbp), %rax
	addq	$8, %rax
	movq	%rdx, %rsi
	movq	%rax, %rdi
	call	_ZNSt6vectorIS_IdSaIdEESaIS1_EEaSERKS3_
	movq	-16(%rbp), %rax
	leaq	32(%rax), %rdx
	movq	-8(%rbp), %rax
	addq	$32, %rax
	movq	%rdx, %rsi
	movq	%rax, %rdi
	call	_ZNSt6vectorImSaImEEaSERKS1_
	movq	-8(%rbp), %rax
	leave
	.cfi_def_cfa 7, 8
	ret
	.cfi_endproc
.LFE3741:
	.size	_ZN7MatricaIdEaSEOS0_, .-_ZN7MatricaIdEaSEOS0_
	.section	.rodata
.LC32:
	.string	"Pivot element je 0! Stajem!"
	.section	.text._ZNK7MatricaIdE17LUP_dekompozicijaERS0_,"axG",@progbits,_ZNK7MatricaIdE17LUP_dekompozicijaERS0_,comdat
	.align 2
	.weak	_ZNK7MatricaIdE17LUP_dekompozicijaERS0_
	.type	_ZNK7MatricaIdE17LUP_dekompozicijaERS0_, @function
_ZNK7MatricaIdE17LUP_dekompozicijaERS0_:
.LFB3742:
	.cfi_startproc
	.cfi_personality 0x9b,DW.ref.__gxx_personality_v0
	.cfi_lsda 0x1b,.LLSDA3742
	pushq	%rbp
	.cfi_def_cfa_offset 16
	.cfi_offset 6, -16
	movq	%rsp, %rbp
	.cfi_def_cfa_register 6
	pushq	%r12
	pushq	%rbx
	subq	$208, %rsp
	.cfi_offset 12, -24
	.cfi_offset 3, -32
	movq	%rdi, -200(%rbp)
	movq	%rsi, -208(%rbp)
	movq	%rdx, -216(%rbp)
	movq	-208(%rbp), %rax
	movq	%rax, %rdi
.LEHB105:
	call	_ZNK7MatricaIdE9kvadratnaEv
.LEHE105:
	xorl	$1, %eax
	testb	%al, %al
	je	.L281
	movl	$40, %edi
	call	__cxa_allocate_exception@PLT
	movq	%rax, %rbx
	leaq	-145(%rbp), %rax
	movq	%rax, %rdi
	call	_ZNSaIcEC1Ev@PLT
	leaq	-145(%rbp), %rdx
	leaq	-192(%rbp), %rax
	leaq	.LC29(%rip), %rsi
	movq	%rax, %rdi
.LEHB106:
	call	_ZNSt7__cxx1112basic_stringIcSt11char_traitsIcESaIcEEC1EPKcRKS3_@PLT
.LEHE106:
	leaq	-192(%rbp), %rax
	movq	%rax, %rsi
	movq	%rbx, %rdi
.LEHB107:
	call	_ZN17Matrica_exceptionC1ENSt7__cxx1112basic_stringIcSt11char_traitsIcESaIcEEE
.LEHE107:
	leaq	-192(%rbp), %rax
	movq	%rax, %rdi
	call	_ZNSt7__cxx1112basic_stringIcSt11char_traitsIcESaIcEED1Ev@PLT
	leaq	-145(%rbp), %rax
	movq	%rax, %rdi
	call	_ZNSaIcED1Ev@PLT
	leaq	_ZN17Matrica_exceptionD1Ev(%rip), %rdx
	leaq	_ZTI17Matrica_exception(%rip), %rsi
	movq	%rbx, %rdi
.LEHB108:
	call	__cxa_throw@PLT
.L281:
	movq	-208(%rbp), %rdx
	movq	-200(%rbp), %rax
	movq	%rdx, %rsi
	movq	%rax, %rdi
	call	_ZN7MatricaIdEC1ERKS0_
.LEHE108:
	movq	-208(%rbp), %rax
	movq	%rax, %rdi
.LEHB109:
	call	_ZNK7MatricaIdE3dimEv
	movl	%eax, -48(%rbp)
	movl	$0, -20(%rbp)
.L292:
	movl	-48(%rbp), %eax
	subl	$1, %eax
	cmpl	%eax, -20(%rbp)
	jge	.L282
	movl	-20(%rbp), %eax
	movl	%eax, -24(%rbp)
	movl	-20(%rbp), %eax
	movslq	%eax, %rbx
	movl	-20(%rbp), %edx
	movq	-200(%rbp), %rax
	movl	%edx, %esi
	movq	%rax, %rdi
	call	_ZN7MatricaIdEixEi
	movq	%rbx, %rsi
	movq	%rax, %rdi
	call	_ZNSt6vectorIdSaIdEEixEm
	movq	(%rax), %rax
	movq	%rax, -224(%rbp)
	movsd	-224(%rbp), %xmm0
	call	_ZSt3absd
	movq	%xmm0, %rax
	movq	%rax, -32(%rbp)
	movl	-20(%rbp), %eax
	addl	$1, %eax
	movl	%eax, -36(%rbp)
.L285:
	movl	-36(%rbp), %eax
	cmpl	-48(%rbp), %eax
	jge	.L283
	movl	-20(%rbp), %eax
	movslq	%eax, %rbx
	movl	-36(%rbp), %edx
	movq	-200(%rbp), %rax
	movl	%edx, %esi
	movq	%rax, %rdi
	call	_ZN7MatricaIdEixEi
	movq	%rbx, %rsi
	movq	%rax, %rdi
	call	_ZNSt6vectorIdSaIdEEixEm
	movq	(%rax), %rax
	movq	%rax, -224(%rbp)
	movsd	-224(%rbp), %xmm0
	call	_ZSt3absd
	ucomisd	-32(%rbp), %xmm0
	seta	%al
	testb	%al, %al
	je	.L284
	movl	-20(%rbp), %eax
	movslq	%eax, %rbx
	movl	-36(%rbp), %edx
	movq	-200(%rbp), %rax
	movl	%edx, %esi
	movq	%rax, %rdi
	call	_ZN7MatricaIdEixEi
.LEHE109:
	movq	%rbx, %rsi
	movq	%rax, %rdi
	call	_ZNSt6vectorIdSaIdEEixEm
	movq	(%rax), %rax
	movq	%rax, -224(%rbp)
	movsd	-224(%rbp), %xmm0
	call	_ZSt3absd
	movq	%xmm0, %rax
	movq	%rax, -32(%rbp)
	movl	-36(%rbp), %eax
	movl	%eax, -24(%rbp)
.L284:
	addl	$1, -36(%rbp)
	jmp	.L285
.L283:
	movq	-32(%rbp), %rax
	movq	%rax, -224(%rbp)
	movsd	-224(%rbp), %xmm0
	call	_ZSt3absd
	movapd	%xmm0, %xmm1
	movsd	.LC24(%rip), %xmm0
	ucomisd	%xmm1, %xmm0
	seta	%al
	testb	%al, %al
	je	.L286
	movl	$40, %edi
	call	__cxa_allocate_exception@PLT
	movq	%rax, %rbx
	leaq	-97(%rbp), %rax
	movq	%rax, %rdi
	call	_ZNSaIcEC1Ev@PLT
	leaq	-97(%rbp), %rdx
	leaq	-144(%rbp), %rax
	leaq	.LC32(%rip), %rsi
	movq	%rax, %rdi
.LEHB110:
	call	_ZNSt7__cxx1112basic_stringIcSt11char_traitsIcESaIcEEC1EPKcRKS3_@PLT
.LEHE110:
	leaq	-144(%rbp), %rax
	movq	%rax, %rsi
	movq	%rbx, %rdi
.LEHB111:
	call	_ZN17Matrica_exceptionC1ENSt7__cxx1112basic_stringIcSt11char_traitsIcESaIcEEE
.LEHE111:
	leaq	-144(%rbp), %rax
	movq	%rax, %rdi
	call	_ZNSt7__cxx1112basic_stringIcSt11char_traitsIcESaIcEED1Ev@PLT
	leaq	-97(%rbp), %rax
	movq	%rax, %rdi
	call	_ZNSaIcED1Ev@PLT
	leaq	_ZN17Matrica_exceptionD1Ev(%rip), %rdx
	leaq	_ZTI17Matrica_exception(%rip), %rsi
	movq	%rbx, %rdi
.LEHB112:
	call	__cxa_throw@PLT
.L286:
	movl	-20(%rbp), %eax
	cmpl	-24(%rbp), %eax
	je	.L287
	movl	-24(%rbp), %edx
	movl	-20(%rbp), %ecx
	movq	-200(%rbp), %rax
	movl	%ecx, %esi
	movq	%rax, %rdi
	call	_ZN7MatricaIdE14zamijeni_retkeEii
	movl	-24(%rbp), %edx
	movl	-20(%rbp), %ecx
	movq	-216(%rbp), %rax
	movl	%ecx, %esi
	movq	%rax, %rdi
	call	_ZN7MatricaIdE14zamijeni_retkeEii
.L287:
	movl	-20(%rbp), %eax
	addl	$1, %eax
	movl	%eax, -40(%rbp)
.L291:
	movl	-40(%rbp), %eax
	cmpl	-48(%rbp), %eax
	jge	.L288
	movl	-20(%rbp), %eax
	movslq	%eax, %rbx
	movl	-20(%rbp), %edx
	movq	-200(%rbp), %rax
	movl	%edx, %esi
	movq	%rax, %rdi
	call	_ZN7MatricaIdEixEi
	movq	%rbx, %rsi
	movq	%rax, %rdi
	call	_ZNSt6vectorIdSaIdEEixEm
	movsd	(%rax), %xmm2
	movsd	%xmm2, -224(%rbp)
	movl	-20(%rbp), %eax
	movslq	%eax, %rbx
	movl	-40(%rbp), %edx
	movq	-200(%rbp), %rax
	movl	%edx, %esi
	movq	%rax, %rdi
	call	_ZN7MatricaIdEixEi
	movq	%rbx, %rsi
	movq	%rax, %rdi
	call	_ZNSt6vectorIdSaIdEEixEm
	movsd	(%rax), %xmm0
	divsd	-224(%rbp), %xmm0
	movsd	%xmm0, (%rax)
	movl	-20(%rbp), %eax
	addl	$1, %eax
	movl	%eax, -44(%rbp)
.L290:
	movl	-44(%rbp), %eax
	cmpl	-48(%rbp), %eax
	jge	.L289
	movl	-20(%rbp), %eax
	movslq	%eax, %rbx
	movl	-40(%rbp), %edx
	movq	-200(%rbp), %rax
	movl	%edx, %esi
	movq	%rax, %rdi
	call	_ZN7MatricaIdEixEi
	movq	%rbx, %rsi
	movq	%rax, %rdi
	call	_ZNSt6vectorIdSaIdEEixEm
	movsd	(%rax), %xmm4
	movsd	%xmm4, -224(%rbp)
	movl	-44(%rbp), %eax
	movslq	%eax, %rbx
	movl	-20(%rbp), %edx
	movq	-200(%rbp), %rax
	movl	%edx, %esi
	movq	%rax, %rdi
	call	_ZN7MatricaIdEixEi
	movq	%rbx, %rsi
	movq	%rax, %rdi
	call	_ZNSt6vectorIdSaIdEEixEm
	movsd	(%rax), %xmm0
	mulsd	-224(%rbp), %xmm0
	movsd	%xmm0, -224(%rbp)
	movl	-44(%rbp), %eax
	movslq	%eax, %rbx
	movl	-40(%rbp), %edx
	movq	-200(%rbp), %rax
	movl	%edx, %esi
	movq	%rax, %rdi
	call	_ZN7MatricaIdEixEi
	movq	%rbx, %rsi
	movq	%rax, %rdi
	call	_ZNSt6vectorIdSaIdEEixEm
	movsd	(%rax), %xmm0
	subsd	-224(%rbp), %xmm0
	movsd	%xmm0, (%rax)
	addl	$1, -44(%rbp)
	jmp	.L290
.L289:
	addl	$1, -40(%rbp)
	jmp	.L291
.L288:
	addl	$1, -20(%rbp)
	jmp	.L292
.L282:
	movq	-200(%rbp), %rax
	movq	%rax, %rdi
	call	_ZNK7MatricaIdE18nule_na_dijagonaliEv
.LEHE112:
	testb	%al, %al
	je	.L309
	movl	$40, %edi
	call	__cxa_allocate_exception@PLT
	movq	%rax, %rbx
	leaq	-49(%rbp), %rax
	movq	%rax, %rdi
	call	_ZNSaIcEC1Ev@PLT
	leaq	-49(%rbp), %rdx
	leaq	-96(%rbp), %rax
	leaq	.LC31(%rip), %rsi
	movq	%rax, %rdi
.LEHB113:
	call	_ZNSt7__cxx1112basic_stringIcSt11char_traitsIcESaIcEEC1EPKcRKS3_@PLT
.LEHE113:
	leaq	-96(%rbp), %rax
	movq	%rax, %rsi
	movq	%rbx, %rdi
.LEHB114:
	call	_ZN17Matrica_exceptionC1ENSt7__cxx1112basic_stringIcSt11char_traitsIcESaIcEEE
.LEHE114:
	leaq	-96(%rbp), %rax
	movq	%rax, %rdi
	call	_ZNSt7__cxx1112basic_stringIcSt11char_traitsIcESaIcEED1Ev@PLT
	leaq	-49(%rbp), %rax
	movq	%rax, %rdi
	call	_ZNSaIcED1Ev@PLT
	leaq	_ZN17Matrica_exceptionD1Ev(%rip), %rdx
	leaq	_ZTI17Matrica_exception(%rip), %rsi
	movq	%rbx, %rdi
.LEHB115:
	call	__cxa_throw@PLT
.LEHE115:
.L303:
	movq	%rax, %r12
	leaq	-192(%rbp), %rax
	movq	%rax, %rdi
	call	_ZNSt7__cxx1112basic_stringIcSt11char_traitsIcESaIcEED1Ev@PLT
	jmp	.L296
.L302:
	movq	%rax, %r12
.L296:
	leaq	-145(%rbp), %rax
	movq	%rax, %rdi
	call	_ZNSaIcED1Ev@PLT
	movq	%rbx, %rdi
	call	__cxa_free_exception@PLT
	movq	%r12, %rax
	movq	%rax, %rdi
.LEHB116:
	call	_Unwind_Resume@PLT
.L306:
	movq	%rax, %r12
	leaq	-144(%rbp), %rax
	movq	%rax, %rdi
	call	_ZNSt7__cxx1112basic_stringIcSt11char_traitsIcESaIcEED1Ev@PLT
	jmp	.L298
.L305:
	movq	%rax, %r12
.L298:
	leaq	-97(%rbp), %rax
	movq	%rax, %rdi
	call	_ZNSaIcED1Ev@PLT
	movq	%rbx, %rdi
	call	__cxa_free_exception@PLT
	movq	%r12, %rbx
	jmp	.L299
.L308:
	movq	%rax, %r12
	leaq	-96(%rbp), %rax
	movq	%rax, %rdi
	call	_ZNSt7__cxx1112basic_stringIcSt11char_traitsIcESaIcEED1Ev@PLT
	jmp	.L301
.L307:
	movq	%rax, %r12
.L301:
	leaq	-49(%rbp), %rax
	movq	%rax, %rdi
	call	_ZNSaIcED1Ev@PLT
	movq	%rbx, %rdi
	call	__cxa_free_exception@PLT
	movq	%r12, %rbx
	jmp	.L299
.L304:
	movq	%rax, %rbx
.L299:
	movq	-200(%rbp), %rax
	movq	%rax, %rdi
	call	_ZN7MatricaIdED1Ev
	movq	%rbx, %rax
	movq	%rax, %rdi
	call	_Unwind_Resume@PLT
.LEHE116:
.L309:
	nop
	movq	-200(%rbp), %rax
	addq	$208, %rsp
	popq	%rbx
	popq	%r12
	popq	%rbp
	.cfi_def_cfa 7, 8
	ret
	.cfi_endproc
.LFE3742:
	.section	.gcc_except_table
.LLSDA3742:
	.byte	0xff
	.byte	0xff
	.byte	0x1
	.uleb128 .LLSDACSE3742-.LLSDACSB3742
.LLSDACSB3742:
	.uleb128 .LEHB105-.LFB3742
	.uleb128 .LEHE105-.LEHB105
	.uleb128 0
	.uleb128 0
	.uleb128 .LEHB106-.LFB3742
	.uleb128 .LEHE106-.LEHB106
	.uleb128 .L302-.LFB3742
	.uleb128 0
	.uleb128 .LEHB107-.LFB3742
	.uleb128 .LEHE107-.LEHB107
	.uleb128 .L303-.LFB3742
	.uleb128 0
	.uleb128 .LEHB108-.LFB3742
	.uleb128 .LEHE108-.LEHB108
	.uleb128 0
	.uleb128 0
	.uleb128 .LEHB109-.LFB3742
	.uleb128 .LEHE109-.LEHB109
	.uleb128 .L304-.LFB3742
	.uleb128 0
	.uleb128 .LEHB110-.LFB3742
	.uleb128 .LEHE110-.LEHB110
	.uleb128 .L305-.LFB3742
	.uleb128 0
	.uleb128 .LEHB111-.LFB3742
	.uleb128 .LEHE111-.LEHB111
	.uleb128 .L306-.LFB3742
	.uleb128 0
	.uleb128 .LEHB112-.LFB3742
	.uleb128 .LEHE112-.LEHB112
	.uleb128 .L304-.LFB3742
	.uleb128 0
	.uleb128 .LEHB113-.LFB3742
	.uleb128 .LEHE113-.LEHB113
	.uleb128 .L307-.LFB3742
	.uleb128 0
	.uleb128 .LEHB114-.LFB3742
	.uleb128 .LEHE114-.LEHB114
	.uleb128 .L308-.LFB3742
	.uleb128 0
	.uleb128 .LEHB115-.LFB3742
	.uleb128 .LEHE115-.LEHB115
	.uleb128 .L304-.LFB3742
	.uleb128 0
	.uleb128 .LEHB116-.LFB3742
	.uleb128 .LEHE116-.LEHB116
	.uleb128 0
	.uleb128 0
.LLSDACSE3742:
	.section	.text._ZNK7MatricaIdE17LUP_dekompozicijaERS0_,"axG",@progbits,_ZNK7MatricaIdE17LUP_dekompozicijaERS0_,comdat
	.size	_ZNK7MatricaIdE17LUP_dekompozicijaERS0_, .-_ZNK7MatricaIdE17LUP_dekompozicijaERS0_
	.section	.rodata
	.align 8
.LC33:
	.string	"Dimenzije matrice i slobodnog vektora se ne podudaraju!"
	.section	.text._ZNK7MatricaIdE22supstitucija_unaprijedERKS0_,"axG",@progbits,_ZNK7MatricaIdE22supstitucija_unaprijedERKS0_,comdat
	.align 2
	.weak	_ZNK7MatricaIdE22supstitucija_unaprijedERKS0_
	.type	_ZNK7MatricaIdE22supstitucija_unaprijedERKS0_, @function
_ZNK7MatricaIdE22supstitucija_unaprijedERKS0_:
.LFB3743:
	.cfi_startproc
	.cfi_personality 0x9b,DW.ref.__gxx_personality_v0
	.cfi_lsda 0x1b,.LLSDA3743
	pushq	%rbp
	.cfi_def_cfa_offset 16
	.cfi_offset 6, -16
	movq	%rsp, %rbp
	.cfi_def_cfa_register 6
	pushq	%r12
	pushq	%rbx
	subq	$96, %rsp
	.cfi_offset 12, -24
	.cfi_offset 3, -32
	movq	%rdi, -88(%rbp)
	movq	%rsi, -96(%rbp)
	movq	%rdx, -104(%rbp)
	movq	-96(%rbp), %rax
	movq	%rax, %rdi
.LEHB117:
	call	_ZNK7MatricaIdE3dimEv
	movq	%rax, -72(%rbp)
	movq	-96(%rbp), %rax
	movq	%rax, %rdi
	call	_ZNK7MatricaIdE9kvadratnaEv
.LEHE117:
	xorl	$1, %eax
	testb	%al, %al
	je	.L311
	movl	$40, %edi
	call	__cxa_allocate_exception@PLT
	movq	%rax, %rbx
	leaq	-29(%rbp), %rax
	movq	%rax, %rdi
	call	_ZNSaIcEC1Ev@PLT
	leaq	-29(%rbp), %rdx
	leaq	-64(%rbp), %rax
	leaq	.LC29(%rip), %rsi
	movq	%rax, %rdi
.LEHB118:
	call	_ZNSt7__cxx1112basic_stringIcSt11char_traitsIcESaIcEEC1EPKcRKS3_@PLT
.LEHE118:
	leaq	-64(%rbp), %rax
	movq	%rax, %rsi
	movq	%rbx, %rdi
.LEHB119:
	call	_ZN17Matrica_exceptionC1ENSt7__cxx1112basic_stringIcSt11char_traitsIcESaIcEEE
.LEHE119:
	leaq	-64(%rbp), %rax
	movq	%rax, %rdi
	call	_ZNSt7__cxx1112basic_stringIcSt11char_traitsIcESaIcEED1Ev@PLT
	leaq	-29(%rbp), %rax
	movq	%rax, %rdi
	call	_ZNSaIcED1Ev@PLT
	leaq	_ZN17Matrica_exceptionD1Ev(%rip), %rdx
	leaq	_ZTI17Matrica_exception(%rip), %rsi
	movq	%rbx, %rdi
.LEHB120:
	call	__cxa_throw@PLT
.L311:
	movl	-72(%rbp), %ebx
	movq	-104(%rbp), %rax
	movq	%rax, %rdi
	call	_ZNK7MatricaIdE3dimEv
.LEHE120:
	cmpl	%eax, %ebx
	setne	%al
	testb	%al, %al
	je	.L312
	movl	$16, %edi
	call	__cxa_allocate_exception@PLT
	movq	%rax, %rbx
	leaq	.LC33(%rip), %rsi
	movq	%rbx, %rdi
.LEHB121:
	call	_ZNSt16invalid_argumentC1EPKc@PLT
.LEHE121:
	movq	_ZNSt16invalid_argumentD1Ev@GOTPCREL(%rip), %rax
	movq	%rax, %rdx
	leaq	_ZTISt16invalid_argument(%rip), %rsi
	movq	%rbx, %rdi
.LEHB122:
	call	__cxa_throw@PLT
.L312:
	movl	-72(%rbp), %eax
	movl	%eax, -28(%rbp)
	movl	-28(%rbp), %ecx
	movq	-88(%rbp), %rax
	movl	$1, %edx
	movl	%ecx, %esi
	movq	%rax, %rdi
	call	_ZN7MatricaIdEC1Eii
.LEHE122:
	movq	-104(%rbp), %rax
	movl	$0, %esi
	movq	%rax, %rdi
.LEHB123:
	call	_ZNK7MatricaIdEixEi
	movl	$0, %esi
	movq	%rax, %rdi
	call	_ZNKSt6vectorIdSaIdEEixEm
	movq	%rax, %rbx
	movq	-88(%rbp), %rax
	movl	$0, %esi
	movq	%rax, %rdi
	call	_ZN7MatricaIdEixEi
	movl	$0, %esi
	movq	%rax, %rdi
	call	_ZNSt6vectorIdSaIdEEixEm
	movsd	(%rbx), %xmm0
	movsd	%xmm0, (%rax)
	movl	$1, -20(%rbp)
.L316:
	movl	-20(%rbp), %eax
	cmpl	-28(%rbp), %eax
	jge	.L326
	movl	-20(%rbp), %edx
	movq	-104(%rbp), %rax
	movl	%edx, %esi
	movq	%rax, %rdi
	call	_ZNK7MatricaIdEixEi
	movl	$0, %esi
	movq	%rax, %rdi
	call	_ZNKSt6vectorIdSaIdEEixEm
	movq	%rax, %rbx
	movl	-20(%rbp), %edx
	movq	-88(%rbp), %rax
	movl	%edx, %esi
	movq	%rax, %rdi
	call	_ZN7MatricaIdEixEi
	movl	$0, %esi
	movq	%rax, %rdi
	call	_ZNSt6vectorIdSaIdEEixEm
	movsd	(%rbx), %xmm0
	movsd	%xmm0, (%rax)
	movl	$0, -24(%rbp)
.L315:
	movl	-24(%rbp), %eax
	cmpl	-20(%rbp), %eax
	jge	.L314
	movl	-24(%rbp), %eax
	movslq	%eax, %rbx
	movl	-20(%rbp), %edx
	movq	-96(%rbp), %rax
	movl	%edx, %esi
	movq	%rax, %rdi
	call	_ZNK7MatricaIdEixEi
	movq	%rbx, %rsi
	movq	%rax, %rdi
	call	_ZNKSt6vectorIdSaIdEEixEm
	movsd	(%rax), %xmm1
	movsd	%xmm1, -112(%rbp)
	movl	-24(%rbp), %edx
	movq	-88(%rbp), %rax
	movl	%edx, %esi
	movq	%rax, %rdi
	call	_ZN7MatricaIdEixEi
	movl	$0, %esi
	movq	%rax, %rdi
	call	_ZNSt6vectorIdSaIdEEixEm
	movsd	(%rax), %xmm0
	mulsd	-112(%rbp), %xmm0
	movsd	%xmm0, -112(%rbp)
	movl	-20(%rbp), %edx
	movq	-88(%rbp), %rax
	movl	%edx, %esi
	movq	%rax, %rdi
	call	_ZN7MatricaIdEixEi
.LEHE123:
	movl	$0, %esi
	movq	%rax, %rdi
	call	_ZNSt6vectorIdSaIdEEixEm
	movsd	(%rax), %xmm0
	subsd	-112(%rbp), %xmm0
	movsd	%xmm0, (%rax)
	addl	$1, -24(%rbp)
	jmp	.L315
.L314:
	addl	$1, -20(%rbp)
	jmp	.L316
.L323:
	movq	%rax, %r12
	leaq	-64(%rbp), %rax
	movq	%rax, %rdi
	call	_ZNSt7__cxx1112basic_stringIcSt11char_traitsIcESaIcEED1Ev@PLT
	jmp	.L319
.L322:
	movq	%rax, %r12
.L319:
	leaq	-29(%rbp), %rax
	movq	%rax, %rdi
	call	_ZNSaIcED1Ev@PLT
	movq	%rbx, %rdi
	call	__cxa_free_exception@PLT
	movq	%r12, %rax
	movq	%rax, %rdi
.LEHB124:
	call	_Unwind_Resume@PLT
.L324:
	movq	%rax, %r12
	movq	%rbx, %rdi
	call	__cxa_free_exception@PLT
	movq	%r12, %rax
	movq	%rax, %rdi
	call	_Unwind_Resume@PLT
.L325:
	movq	%rax, %rbx
	movq	-88(%rbp), %rax
	movq	%rax, %rdi
	call	_ZN7MatricaIdED1Ev
	movq	%rbx, %rax
	movq	%rax, %rdi
	call	_Unwind_Resume@PLT
.LEHE124:
.L326:
	nop
	movq	-88(%rbp), %rax
	addq	$96, %rsp
	popq	%rbx
	popq	%r12
	popq	%rbp
	.cfi_def_cfa 7, 8
	ret
	.cfi_endproc
.LFE3743:
	.section	.gcc_except_table
.LLSDA3743:
	.byte	0xff
	.byte	0xff
	.byte	0x1
	.uleb128 .LLSDACSE3743-.LLSDACSB3743
.LLSDACSB3743:
	.uleb128 .LEHB117-.LFB3743
	.uleb128 .LEHE117-.LEHB117
	.uleb128 0
	.uleb128 0
	.uleb128 .LEHB118-.LFB3743
	.uleb128 .LEHE118-.LEHB118
	.uleb128 .L322-.LFB3743
	.uleb128 0
	.uleb128 .LEHB119-.LFB3743
	.uleb128 .LEHE119-.LEHB119
	.uleb128 .L323-.LFB3743
	.uleb128 0
	.uleb128 .LEHB120-.LFB3743
	.uleb128 .LEHE120-.LEHB120
	.uleb128 0
	.uleb128 0
	.uleb128 .LEHB121-.LFB3743
	.uleb128 .LEHE121-.LEHB121
	.uleb128 .L324-.LFB3743
	.uleb128 0
	.uleb128 .LEHB122-.LFB3743
	.uleb128 .LEHE122-.LEHB122
	.uleb128 0
	.uleb128 0
	.uleb128 .LEHB123-.LFB3743
	.uleb128 .LEHE123-.LEHB123
	.uleb128 .L325-.LFB3743
	.uleb128 0
	.uleb128 .LEHB124-.LFB3743
	.uleb128 .LEHE124-.LEHB124
	.uleb128 0
	.uleb128 0
.LLSDACSE3743:
	.section	.text._ZNK7MatricaIdE22supstitucija_unaprijedERKS0_,"axG",@progbits,_ZNK7MatricaIdE22supstitucija_unaprijedERKS0_,comdat
	.size	_ZNK7MatricaIdE22supstitucija_unaprijedERKS0_, .-_ZNK7MatricaIdE22supstitucija_unaprijedERKS0_
	.section	.rodata
	.align 8
.LC34:
	.string	"Dimenzije matrice i vektora y se ne podudaraju!"
	.section	.text._ZNK7MatricaIdE20supstitucija_unatragERKS0_,"axG",@progbits,_ZNK7MatricaIdE20supstitucija_unatragERKS0_,comdat
	.align 2
	.weak	_ZNK7MatricaIdE20supstitucija_unatragERKS0_
	.type	_ZNK7MatricaIdE20supstitucija_unatragERKS0_, @function
_ZNK7MatricaIdE20supstitucija_unatragERKS0_:
.LFB3744:
	.cfi_startproc
	.cfi_personality 0x9b,DW.ref.__gxx_personality_v0
	.cfi_lsda 0x1b,.LLSDA3744
	pushq	%rbp
	.cfi_def_cfa_offset 16
	.cfi_offset 6, -16
	movq	%rsp, %rbp
	.cfi_def_cfa_register 6
	pushq	%r12
	pushq	%rbx
	subq	$96, %rsp
	.cfi_offset 12, -24
	.cfi_offset 3, -32
	movq	%rdi, -88(%rbp)
	movq	%rsi, -96(%rbp)
	movq	%rdx, -104(%rbp)
	movq	-96(%rbp), %rax
	movq	%rax, %rdi
.LEHB125:
	call	_ZNK7MatricaIdE3dimEv
	movq	%rax, -72(%rbp)
	movq	-96(%rbp), %rax
	movq	%rax, %rdi
	call	_ZNK7MatricaIdE9kvadratnaEv
.LEHE125:
	xorl	$1, %eax
	testb	%al, %al
	je	.L328
	movl	$40, %edi
	call	__cxa_allocate_exception@PLT
	movq	%rax, %rbx
	leaq	-29(%rbp), %rax
	movq	%rax, %rdi
	call	_ZNSaIcEC1Ev@PLT
	leaq	-29(%rbp), %rdx
	leaq	-64(%rbp), %rax
	leaq	.LC29(%rip), %rsi
	movq	%rax, %rdi
.LEHB126:
	call	_ZNSt7__cxx1112basic_stringIcSt11char_traitsIcESaIcEEC1EPKcRKS3_@PLT
.LEHE126:
	leaq	-64(%rbp), %rax
	movq	%rax, %rsi
	movq	%rbx, %rdi
.LEHB127:
	call	_ZN17Matrica_exceptionC1ENSt7__cxx1112basic_stringIcSt11char_traitsIcESaIcEEE
.LEHE127:
	leaq	-64(%rbp), %rax
	movq	%rax, %rdi
	call	_ZNSt7__cxx1112basic_stringIcSt11char_traitsIcESaIcEED1Ev@PLT
	leaq	-29(%rbp), %rax
	movq	%rax, %rdi
	call	_ZNSaIcED1Ev@PLT
	leaq	_ZN17Matrica_exceptionD1Ev(%rip), %rdx
	leaq	_ZTI17Matrica_exception(%rip), %rsi
	movq	%rbx, %rdi
.LEHB128:
	call	__cxa_throw@PLT
.L328:
	movl	-72(%rbp), %ebx
	movq	-104(%rbp), %rax
	movq	%rax, %rdi
	call	_ZNK7MatricaIdE3dimEv
.LEHE128:
	cmpl	%eax, %ebx
	setne	%al
	testb	%al, %al
	je	.L329
	movl	$16, %edi
	call	__cxa_allocate_exception@PLT
	movq	%rax, %rbx
	leaq	.LC34(%rip), %rsi
	movq	%rbx, %rdi
.LEHB129:
	call	_ZNSt16invalid_argumentC1EPKc@PLT
.LEHE129:
	movq	_ZNSt16invalid_argumentD1Ev@GOTPCREL(%rip), %rax
	movq	%rax, %rdx
	leaq	_ZTISt16invalid_argument(%rip), %rsi
	movq	%rbx, %rdi
.LEHB130:
	call	__cxa_throw@PLT
.L329:
	movl	-72(%rbp), %eax
	movl	%eax, -28(%rbp)
	movq	-104(%rbp), %rdx
	movq	-88(%rbp), %rax
	movq	%rdx, %rsi
	movq	%rax, %rdi
	call	_ZN7MatricaIdEC1ERKS0_
.LEHE130:
	movl	-28(%rbp), %eax
	subl	$1, %eax
	movl	%eax, -20(%rbp)
.L333:
	cmpl	$0, -20(%rbp)
	js	.L343
	movl	-20(%rbp), %eax
	addl	$1, %eax
	movl	%eax, -24(%rbp)
.L332:
	movl	-24(%rbp), %eax
	cmpl	-28(%rbp), %eax
	jge	.L331
	movl	-24(%rbp), %eax
	movslq	%eax, %rbx
	movl	-20(%rbp), %edx
	movq	-96(%rbp), %rax
	movl	%edx, %esi
	movq	%rax, %rdi
.LEHB131:
	call	_ZNK7MatricaIdEixEi
	movq	%rbx, %rsi
	movq	%rax, %rdi
	call	_ZNKSt6vectorIdSaIdEEixEm
	movsd	(%rax), %xmm1
	movsd	%xmm1, -112(%rbp)
	movl	-24(%rbp), %edx
	movq	-88(%rbp), %rax
	movl	%edx, %esi
	movq	%rax, %rdi
	call	_ZN7MatricaIdEixEi
	movl	$0, %esi
	movq	%rax, %rdi
	call	_ZNSt6vectorIdSaIdEEixEm
	movsd	(%rax), %xmm0
	mulsd	-112(%rbp), %xmm0
	movsd	%xmm0, -112(%rbp)
	movl	-20(%rbp), %edx
	movq	-88(%rbp), %rax
	movl	%edx, %esi
	movq	%rax, %rdi
	call	_ZN7MatricaIdEixEi
	movl	$0, %esi
	movq	%rax, %rdi
	call	_ZNSt6vectorIdSaIdEEixEm
	movsd	(%rax), %xmm0
	subsd	-112(%rbp), %xmm0
	movsd	%xmm0, (%rax)
	addl	$1, -24(%rbp)
	jmp	.L332
.L331:
	movl	-20(%rbp), %eax
	movslq	%eax, %rbx
	movl	-20(%rbp), %edx
	movq	-96(%rbp), %rax
	movl	%edx, %esi
	movq	%rax, %rdi
	call	_ZNK7MatricaIdEixEi
	movq	%rbx, %rsi
	movq	%rax, %rdi
	call	_ZNKSt6vectorIdSaIdEEixEm
	movsd	(%rax), %xmm4
	movsd	%xmm4, -112(%rbp)
	movl	-20(%rbp), %edx
	movq	-88(%rbp), %rax
	movl	%edx, %esi
	movq	%rax, %rdi
	call	_ZN7MatricaIdEixEi
.LEHE131:
	movl	$0, %esi
	movq	%rax, %rdi
	call	_ZNSt6vectorIdSaIdEEixEm
	movsd	(%rax), %xmm0
	divsd	-112(%rbp), %xmm0
	movsd	%xmm0, (%rax)
	subl	$1, -20(%rbp)
	jmp	.L333
.L340:
	movq	%rax, %r12
	leaq	-64(%rbp), %rax
	movq	%rax, %rdi
	call	_ZNSt7__cxx1112basic_stringIcSt11char_traitsIcESaIcEED1Ev@PLT
	jmp	.L336
.L339:
	movq	%rax, %r12
.L336:
	leaq	-29(%rbp), %rax
	movq	%rax, %rdi
	call	_ZNSaIcED1Ev@PLT
	movq	%rbx, %rdi
	call	__cxa_free_exception@PLT
	movq	%r12, %rax
	movq	%rax, %rdi
.LEHB132:
	call	_Unwind_Resume@PLT
.L341:
	movq	%rax, %r12
	movq	%rbx, %rdi
	call	__cxa_free_exception@PLT
	movq	%r12, %rax
	movq	%rax, %rdi
	call	_Unwind_Resume@PLT
.L342:
	movq	%rax, %rbx
	movq	-88(%rbp), %rax
	movq	%rax, %rdi
	call	_ZN7MatricaIdED1Ev
	movq	%rbx, %rax
	movq	%rax, %rdi
	call	_Unwind_Resume@PLT
.LEHE132:
.L343:
	nop
	movq	-88(%rbp), %rax
	addq	$96, %rsp
	popq	%rbx
	popq	%r12
	popq	%rbp
	.cfi_def_cfa 7, 8
	ret
	.cfi_endproc
.LFE3744:
	.section	.gcc_except_table
.LLSDA3744:
	.byte	0xff
	.byte	0xff
	.byte	0x1
	.uleb128 .LLSDACSE3744-.LLSDACSB3744
.LLSDACSB3744:
	.uleb128 .LEHB125-.LFB3744
	.uleb128 .LEHE125-.LEHB125
	.uleb128 0
	.uleb128 0
	.uleb128 .LEHB126-.LFB3744
	.uleb128 .LEHE126-.LEHB126
	.uleb128 .L339-.LFB3744
	.uleb128 0
	.uleb128 .LEHB127-.LFB3744
	.uleb128 .LEHE127-.LEHB127
	.uleb128 .L340-.LFB3744
	.uleb128 0
	.uleb128 .LEHB128-.LFB3744
	.uleb128 .LEHE128-.LEHB128
	.uleb128 0
	.uleb128 0
	.uleb128 .LEHB129-.LFB3744
	.uleb128 .LEHE129-.LEHB129
	.uleb128 .L341-.LFB3744
	.uleb128 0
	.uleb128 .LEHB130-.LFB3744
	.uleb128 .LEHE130-.LEHB130
	.uleb128 0
	.uleb128 0
	.uleb128 .LEHB131-.LFB3744
	.uleb128 .LEHE131-.LEHB131
	.uleb128 .L342-.LFB3744
	.uleb128 0
	.uleb128 .LEHB132-.LFB3744
	.uleb128 .LEHE132-.LEHB132
	.uleb128 0
	.uleb128 0
.LLSDACSE3744:
	.section	.text._ZNK7MatricaIdE20supstitucija_unatragERKS0_,"axG",@progbits,_ZNK7MatricaIdE20supstitucija_unatragERKS0_,comdat
	.size	_ZNK7MatricaIdE20supstitucija_unatragERKS0_, .-_ZNK7MatricaIdE20supstitucija_unatragERKS0_
	.section	.rodata
	.align 8
.LC35:
	.string	"Ne znam naci inverz nekvadratne matrice!"
	.section	.text._ZNK7MatricaIdE3invEv,"axG",@progbits,_ZNK7MatricaIdE3invEv,comdat
	.align 2
	.weak	_ZNK7MatricaIdE3invEv
	.type	_ZNK7MatricaIdE3invEv, @function
_ZNK7MatricaIdE3invEv:
.LFB3745:
	.cfi_startproc
	.cfi_personality 0x9b,DW.ref.__gxx_personality_v0
	.cfi_lsda 0x1b,.LLSDA3745
	pushq	%rbp
	.cfi_def_cfa_offset 16
	.cfi_offset 6, -16
	movq	%rsp, %rbp
	.cfi_def_cfa_register 6
	pushq	%r12
	pushq	%rbx
	subq	$384, %rsp
	.cfi_offset 12, -24
	.cfi_offset 3, -32
	movq	%rdi, -392(%rbp)
	movq	%rsi, -400(%rbp)
	movq	-400(%rbp), %rax
	movq	%rax, %rdi
.LEHB133:
	call	_ZNK7MatricaIdE9kvadratnaEv
.LEHE133:
	xorl	$1, %eax
	testb	%al, %al
	je	.L345
	movl	$40, %edi
	call	__cxa_allocate_exception@PLT
	movq	%rax, %rbx
	leaq	-29(%rbp), %rax
	movq	%rax, %rdi
	call	_ZNSaIcEC1Ev@PLT
	leaq	-29(%rbp), %rdx
	leaq	-64(%rbp), %rax
	leaq	.LC35(%rip), %rsi
	movq	%rax, %rdi
.LEHB134:
	call	_ZNSt7__cxx1112basic_stringIcSt11char_traitsIcESaIcEEC1EPKcRKS3_@PLT
.LEHE134:
	leaq	-64(%rbp), %rax
	movq	%rax, %rsi
	movq	%rbx, %rdi
.LEHB135:
	call	_ZN17Matrica_exceptionC1ENSt7__cxx1112basic_stringIcSt11char_traitsIcESaIcEEE
.LEHE135:
	leaq	-64(%rbp), %rax
	movq	%rax, %rdi
	call	_ZNSt7__cxx1112basic_stringIcSt11char_traitsIcESaIcEED1Ev@PLT
	leaq	-29(%rbp), %rax
	movq	%rax, %rdi
	call	_ZNSaIcED1Ev@PLT
	leaq	_ZN17Matrica_exceptionD1Ev(%rip), %rdx
	leaq	_ZTI17Matrica_exception(%rip), %rsi
	movq	%rbx, %rdi
.LEHB136:
	call	__cxa_throw@PLT
.L345:
	movq	-400(%rbp), %rax
	movq	%rax, %rdi
	call	_ZNK7MatricaIdE3dimEv
	movl	%eax, -28(%rbp)
	movl	-28(%rbp), %edx
	movl	-28(%rbp), %ecx
	movq	-392(%rbp), %rax
	movl	%ecx, %esi
	movq	%rax, %rdi
	call	_ZN7MatricaIdEC1Eii
.LEHE136:
	movl	-28(%rbp), %edx
	leaq	-128(%rbp), %rax
	movl	%edx, %esi
	movq	%rax, %rdi
.LEHB137:
	call	_ZN7MatricaIdEC1Ei
.LEHE137:
	leaq	-192(%rbp), %rax
	leaq	-128(%rbp), %rdx
	movq	-400(%rbp), %rcx
	movq	%rcx, %rsi
	movq	%rax, %rdi
.LEHB138:
	call	_ZNK7MatricaIdE17LUP_dekompozicijaERS0_
.LEHE138:
	movl	$0, -20(%rbp)
.L349:
	movl	-20(%rbp), %eax
	cmpl	-28(%rbp), %eax
	jge	.L369
	movl	-28(%rbp), %ecx
	leaq	-384(%rbp), %rax
	movl	$1, %edx
	movl	%ecx, %esi
	movq	%rax, %rdi
.LEHB139:
	call	_ZN7MatricaIdEC1Eii
.LEHE139:
	movl	-20(%rbp), %edx
	leaq	-384(%rbp), %rax
	movl	%edx, %esi
	movq	%rax, %rdi
.LEHB140:
	call	_ZN7MatricaIdEixEi
	movl	$0, %esi
	movq	%rax, %rdi
	call	_ZNSt6vectorIdSaIdEEixEm
	movsd	.LC27(%rip), %xmm0
	movsd	%xmm0, (%rax)
	leaq	-192(%rbp), %rax
	leaq	32(%rax), %rdx
	leaq	-384(%rbp), %rax
	addq	$32, %rax
	movq	%rdx, %rsi
	movq	%rax, %rdi
	call	_ZNSt6vectorImSaImEEaSERKS1_
	leaq	-320(%rbp), %rax
	leaq	-384(%rbp), %rdx
	leaq	-192(%rbp), %rcx
	movq	%rcx, %rsi
	movq	%rax, %rdi
	call	_ZNK7MatricaIdE22supstitucija_unaprijedERKS0_
.LEHE140:
	leaq	-256(%rbp), %rax
	leaq	-320(%rbp), %rdx
	leaq	-192(%rbp), %rcx
	movq	%rcx, %rsi
	movq	%rax, %rdi
.LEHB141:
	call	_ZNK7MatricaIdE20supstitucija_unatragERKS0_
.LEHE141:
	movl	$0, -24(%rbp)
.L348:
	movl	-24(%rbp), %eax
	cmpl	-28(%rbp), %eax
	jge	.L347
	movl	-24(%rbp), %edx
	leaq	-256(%rbp), %rax
	movl	%edx, %esi
	movq	%rax, %rdi
.LEHB142:
	call	_ZN7MatricaIdEixEi
	movl	$0, %esi
	movq	%rax, %rdi
	call	_ZNSt6vectorIdSaIdEEixEm
	movq	%rax, %r12
	movl	-20(%rbp), %eax
	movslq	%eax, %rbx
	movl	-24(%rbp), %edx
	movq	-392(%rbp), %rax
	movl	%edx, %esi
	movq	%rax, %rdi
	call	_ZN7MatricaIdEixEi
.LEHE142:
	movq	%rbx, %rsi
	movq	%rax, %rdi
	call	_ZNSt6vectorIdSaIdEEixEm
	movsd	(%r12), %xmm0
	movsd	%xmm0, (%rax)
	addl	$1, -24(%rbp)
	jmp	.L348
.L347:
	leaq	-256(%rbp), %rax
	movq	%rax, %rdi
	call	_ZN7MatricaIdED1Ev
	leaq	-320(%rbp), %rax
	movq	%rax, %rdi
	call	_ZN7MatricaIdED1Ev
	leaq	-384(%rbp), %rax
	movq	%rax, %rdi
	call	_ZN7MatricaIdED1Ev
	addl	$1, -20(%rbp)
	jmp	.L349
.L369:
	nop
	leaq	-192(%rbp), %rax
	movq	%rax, %rdi
	call	_ZN7MatricaIdED1Ev
	leaq	-128(%rbp), %rax
	movq	%rax, %rdi
	call	_ZN7MatricaIdED1Ev
	jmp	.L368
.L360:
	movq	%rax, %r12
	leaq	-64(%rbp), %rax
	movq	%rax, %rdi
	call	_ZNSt7__cxx1112basic_stringIcSt11char_traitsIcESaIcEED1Ev@PLT
	jmp	.L352
.L359:
	movq	%rax, %r12
.L352:
	leaq	-29(%rbp), %rax
	movq	%rax, %rdi
	call	_ZNSaIcED1Ev@PLT
	movq	%rbx, %rdi
	call	__cxa_free_exception@PLT
	movq	%r12, %rax
	movq	%rax, %rdi
.LEHB143:
	call	_Unwind_Resume@PLT
.L366:
	movq	%rax, %rbx
	leaq	-256(%rbp), %rax
	movq	%rax, %rdi
	call	_ZN7MatricaIdED1Ev
	jmp	.L354
.L365:
	movq	%rax, %rbx
.L354:
	leaq	-320(%rbp), %rax
	movq	%rax, %rdi
	call	_ZN7MatricaIdED1Ev
	jmp	.L355
.L364:
	movq	%rax, %rbx
.L355:
	leaq	-384(%rbp), %rax
	movq	%rax, %rdi
	call	_ZN7MatricaIdED1Ev
	jmp	.L356
.L363:
	movq	%rax, %rbx
.L356:
	leaq	-192(%rbp), %rax
	movq	%rax, %rdi
	call	_ZN7MatricaIdED1Ev
	jmp	.L357
.L362:
	movq	%rax, %rbx
.L357:
	leaq	-128(%rbp), %rax
	movq	%rax, %rdi
	call	_ZN7MatricaIdED1Ev
	jmp	.L358
.L361:
	movq	%rax, %rbx
.L358:
	movq	-392(%rbp), %rax
	movq	%rax, %rdi
	call	_ZN7MatricaIdED1Ev
	movq	%rbx, %rax
	movq	%rax, %rdi
	call	_Unwind_Resume@PLT
.LEHE143:
.L368:
	movq	-392(%rbp), %rax
	addq	$384, %rsp
	popq	%rbx
	popq	%r12
	popq	%rbp
	.cfi_def_cfa 7, 8
	ret
	.cfi_endproc
.LFE3745:
	.section	.gcc_except_table
.LLSDA3745:
	.byte	0xff
	.byte	0xff
	.byte	0x1
	.uleb128 .LLSDACSE3745-.LLSDACSB3745
.LLSDACSB3745:
	.uleb128 .LEHB133-.LFB3745
	.uleb128 .LEHE133-.LEHB133
	.uleb128 0
	.uleb128 0
	.uleb128 .LEHB134-.LFB3745
	.uleb128 .LEHE134-.LEHB134
	.uleb128 .L359-.LFB3745
	.uleb128 0
	.uleb128 .LEHB135-.LFB3745
	.uleb128 .LEHE135-.LEHB135
	.uleb128 .L360-.LFB3745
	.uleb128 0
	.uleb128 .LEHB136-.LFB3745
	.uleb128 .LEHE136-.LEHB136
	.uleb128 0
	.uleb128 0
	.uleb128 .LEHB137-.LFB3745
	.uleb128 .LEHE137-.LEHB137
	.uleb128 .L361-.LFB3745
	.uleb128 0
	.uleb128 .LEHB138-.LFB3745
	.uleb128 .LEHE138-.LEHB138
	.uleb128 .L362-.LFB3745
	.uleb128 0
	.uleb128 .LEHB139-.LFB3745
	.uleb128 .LEHE139-.LEHB139
	.uleb128 .L363-.LFB3745
	.uleb128 0
	.uleb128 .LEHB140-.LFB3745
	.uleb128 .LEHE140-.LEHB140
	.uleb128 .L364-.LFB3745
	.uleb128 0
	.uleb128 .LEHB141-.LFB3745
	.uleb128 .LEHE141-.LEHB141
	.uleb128 .L365-.LFB3745
	.uleb128 0
	.uleb128 .LEHB142-.LFB3745
	.uleb128 .LEHE142-.LEHB142
	.uleb128 .L366-.LFB3745
	.uleb128 0
	.uleb128 .LEHB143-.LFB3745
	.uleb128 .LEHE143-.LEHB143
	.uleb128 0
	.uleb128 0
.LLSDACSE3745:
	.section	.text._ZNK7MatricaIdE3invEv,"axG",@progbits,_ZNK7MatricaIdE3invEv,comdat
	.size	_ZNK7MatricaIdE3invEv, .-_ZNK7MatricaIdE3invEv
	.section	.text._ZNSt8valarrayIdEC2ESt16initializer_listIdE,"axG",@progbits,_ZNSt8valarrayIdEC5ESt16initializer_listIdE,comdat
	.align 2
	.weak	_ZNSt8valarrayIdEC2ESt16initializer_listIdE
	.type	_ZNSt8valarrayIdEC2ESt16initializer_listIdE, @function
_ZNSt8valarrayIdEC2ESt16initializer_listIdE:
.LFB3747:
	.cfi_startproc
	pushq	%rbp
	.cfi_def_cfa_offset 16
	.cfi_offset 6, -16
	movq	%rsp, %rbp
	.cfi_def_cfa_register 6
	pushq	%r12
	pushq	%rbx
	subq	$32, %rsp
	.cfi_offset 12, -24
	.cfi_offset 3, -32
	movq	%rdi, -24(%rbp)
	movq	%rsi, %rax
	movq	%rdx, %rcx
	movq	%rcx, %rdx
	movq	%rax, -48(%rbp)
	movq	%rdx, -40(%rbp)
	leaq	-48(%rbp), %rax
	movq	%rax, %rdi
	call	_ZNKSt16initializer_listIdE4sizeEv
	movq	%rax, %rdx
	movq	-24(%rbp), %rax
	movq	%rdx, (%rax)
	leaq	-48(%rbp), %rax
	movq	%rax, %rdi
	call	_ZNKSt16initializer_listIdE4sizeEv
	movq	%rax, %rdi
	call	_ZSt22__valarray_get_storageIdErPT_m
	movq	%rax, %rdx
	movq	-24(%rbp), %rax
	movq	%rdx, 8(%rax)
	movq	-24(%rbp), %rax
	movq	8(%rax), %rbx
	leaq	-48(%rbp), %rax
	movq	%rax, %rdi
	call	_ZNKSt16initializer_listIdE3endEv
	movq	%rax, %r12
	leaq	-48(%rbp), %rax
	movq	%rax, %rdi
	call	_ZNKSt16initializer_listIdE5beginEv
	movq	%rbx, %rdx
	movq	%r12, %rsi
	movq	%rax, %rdi
	call	_ZSt25__valarray_copy_constructIdEvPKT_S2_PS0_
	nop
	addq	$32, %rsp
	popq	%rbx
	popq	%r12
	popq	%rbp
	.cfi_def_cfa 7, 8
	ret
	.cfi_endproc
.LFE3747:
	.size	_ZNSt8valarrayIdEC2ESt16initializer_listIdE, .-_ZNSt8valarrayIdEC2ESt16initializer_listIdE
	.weak	_ZNSt8valarrayIdEC1ESt16initializer_listIdE
	.set	_ZNSt8valarrayIdEC1ESt16initializer_listIdE,_ZNSt8valarrayIdEC2ESt16initializer_listIdE
	.section	.text._ZNSt8valarrayIdED2Ev,"axG",@progbits,_ZNSt8valarrayIdED5Ev,comdat
	.align 2
	.weak	_ZNSt8valarrayIdED2Ev
	.type	_ZNSt8valarrayIdED2Ev, @function
_ZNSt8valarrayIdED2Ev:
.LFB3750:
	.cfi_startproc
	pushq	%rbp
	.cfi_def_cfa_offset 16
	.cfi_offset 6, -16
	movq	%rsp, %rbp
	.cfi_def_cfa_register 6
	subq	$16, %rsp
	movq	%rdi, -8(%rbp)
	movq	-8(%rbp), %rax
	movq	8(%rax), %rdx
	movq	-8(%rbp), %rax
	movq	(%rax), %rax
	salq	$3, %rax
	addq	%rax, %rdx
	movq	-8(%rbp), %rax
	movq	8(%rax), %rax
	movq	%rdx, %rsi
	movq	%rax, %rdi
	call	_ZSt27__valarray_destroy_elementsIdEvPT_S1_
	movq	-8(%rbp), %rax
	movq	8(%rax), %rax
	movq	%rax, %rdi
	call	_ZSt25__valarray_release_memoryPv
	nop
	leave
	.cfi_def_cfa 7, 8
	ret
	.cfi_endproc
.LFE3750:
	.size	_ZNSt8valarrayIdED2Ev, .-_ZNSt8valarrayIdED2Ev
	.weak	_ZNSt8valarrayIdED1Ev
	.set	_ZNSt8valarrayIdED1Ev,_ZNSt8valarrayIdED2Ev
	.section	.text._ZN7MatricaIdEC2ERKSt8valarrayIdE,"axG",@progbits,_ZN7MatricaIdEC5ERKSt8valarrayIdE,comdat
	.align 2
	.weak	_ZN7MatricaIdEC2ERKSt8valarrayIdE
	.type	_ZN7MatricaIdEC2ERKSt8valarrayIdE, @function
_ZN7MatricaIdEC2ERKSt8valarrayIdE:
.LFB3753:
	.cfi_startproc
	.cfi_personality 0x9b,DW.ref.__gxx_personality_v0
	.cfi_lsda 0x1b,.LLSDA3753
	pushq	%rbp
	.cfi_def_cfa_offset 16
	.cfi_offset 6, -16
	movq	%rsp, %rbp
	.cfi_def_cfa_register 6
	pushq	%rbx
	subq	$40, %rsp
	.cfi_offset 3, -24
	movq	%rdi, -40(%rbp)
	movq	%rsi, -48(%rbp)
	leaq	16+_ZTV7MatricaIdE(%rip), %rdx
	movq	-40(%rbp), %rax
	movq	%rdx, (%rax)
	movq	-40(%rbp), %rax
	leaq	8(%rax), %rbx
	leaq	-26(%rbp), %rax
	movq	%rax, %rdi
	call	_ZNSaISt6vectorIdSaIdEEEC1Ev
	movq	-48(%rbp), %rax
	movq	%rax, %rdi
	call	_ZNKSt8valarrayIdE4sizeEv
	movq	%rax, %rcx
	leaq	-26(%rbp), %rax
	movq	%rax, %rdx
	movq	%rcx, %rsi
	movq	%rbx, %rdi
.LEHB144:
	call	_ZNSt6vectorIS_IdSaIdEESaIS1_EEC1EmRKS2_
.LEHE144:
	leaq	-26(%rbp), %rax
	movq	%rax, %rdi
	call	_ZNSaISt6vectorIdSaIdEEED1Ev
	movq	-40(%rbp), %rax
	leaq	32(%rax), %rbx
	leaq	-25(%rbp), %rax
	movq	%rax, %rdi
	call	_ZNSaImEC1Ev
	movq	-48(%rbp), %rax
	movq	%rax, %rdi
	call	_ZNKSt8valarrayIdE4sizeEv
	movq	%rax, %rcx
	leaq	-25(%rbp), %rax
	movq	%rax, %rdx
	movq	%rcx, %rsi
	movq	%rbx, %rdi
.LEHB145:
	call	_ZNSt6vectorImSaImEEC1EmRKS0_
.LEHE145:
	leaq	-25(%rbp), %rax
	movq	%rax, %rdi
	call	_ZNSaImED1Ev
	movl	$0, -20(%rbp)
.L374:
	movl	-20(%rbp), %eax
	movslq	%eax, %rbx
	movq	-48(%rbp), %rax
	movq	%rax, %rdi
	call	_ZNKSt8valarrayIdE4sizeEv
	cmpq	%rax, %rbx
	setb	%al
	testb	%al, %al
	je	.L373
	movl	-20(%rbp), %eax
	cltq
	movq	-40(%rbp), %rdx
	addq	$8, %rdx
	movq	%rax, %rsi
	movq	%rdx, %rdi
	call	_ZNSt6vectorIS_IdSaIdEESaIS1_EEixEm
	movq	%rax, %rbx
	movl	-20(%rbp), %eax
	movslq	%eax, %rdx
	movq	-48(%rbp), %rax
	movq	%rdx, %rsi
	movq	%rax, %rdi
	call	_ZNKSt8valarrayIdEixEm
	movq	%rax, %rsi
	movq	%rbx, %rdi
.LEHB146:
	call	_ZNSt6vectorIdSaIdEE9push_backERKd
.LEHE146:
	addl	$1, -20(%rbp)
	jmp	.L374
.L373:
	movl	$0, -24(%rbp)
.L376:
	movl	-24(%rbp), %eax
	movslq	%eax, %rbx
	movq	-48(%rbp), %rax
	movq	%rax, %rdi
	call	_ZNKSt8valarrayIdE4sizeEv
	cmpq	%rax, %rbx
	setb	%al
	testb	%al, %al
	je	.L384
	movl	-24(%rbp), %eax
	cltq
	movq	-40(%rbp), %rdx
	addq	$32, %rdx
	movq	%rax, %rsi
	movq	%rdx, %rdi
	call	_ZNSt6vectorImSaImEEixEm
	movq	%rax, %rdx
	movl	-24(%rbp), %eax
	cltq
	movq	%rax, (%rdx)
	addl	$1, -24(%rbp)
	jmp	.L376
.L381:
	movq	%rax, %rbx
	leaq	-26(%rbp), %rax
	movq	%rax, %rdi
	call	_ZNSaISt6vectorIdSaIdEEED1Ev
	movq	%rbx, %rax
	movq	%rax, %rdi
.LEHB147:
	call	_Unwind_Resume@PLT
.L382:
	movq	%rax, %rbx
	leaq	-25(%rbp), %rax
	movq	%rax, %rdi
	call	_ZNSaImED1Ev
	jmp	.L379
.L383:
	movq	%rax, %rbx
	movq	-40(%rbp), %rax
	addq	$32, %rax
	movq	%rax, %rdi
	call	_ZNSt6vectorImSaImEED1Ev
.L379:
	movq	-40(%rbp), %rax
	addq	$8, %rax
	movq	%rax, %rdi
	call	_ZNSt6vectorIS_IdSaIdEESaIS1_EED1Ev
	movq	%rbx, %rax
	movq	%rax, %rdi
	call	_Unwind_Resume@PLT
.LEHE147:
.L384:
	nop
	addq	$40, %rsp
	popq	%rbx
	popq	%rbp
	.cfi_def_cfa 7, 8
	ret
	.cfi_endproc
.LFE3753:
	.section	.gcc_except_table
.LLSDA3753:
	.byte	0xff
	.byte	0xff
	.byte	0x1
	.uleb128 .LLSDACSE3753-.LLSDACSB3753
.LLSDACSB3753:
	.uleb128 .LEHB144-.LFB3753
	.uleb128 .LEHE144-.LEHB144
	.uleb128 .L381-.LFB3753
	.uleb128 0
	.uleb128 .LEHB145-.LFB3753
	.uleb128 .LEHE145-.LEHB145
	.uleb128 .L382-.LFB3753
	.uleb128 0
	.uleb128 .LEHB146-.LFB3753
	.uleb128 .LEHE146-.LEHB146
	.uleb128 .L383-.LFB3753
	.uleb128 0
	.uleb128 .LEHB147-.LFB3753
	.uleb128 .LEHE147-.LEHB147
	.uleb128 0
	.uleb128 0
.LLSDACSE3753:
	.section	.text._ZN7MatricaIdEC2ERKSt8valarrayIdE,"axG",@progbits,_ZN7MatricaIdEC5ERKSt8valarrayIdE,comdat
	.size	_ZN7MatricaIdEC2ERKSt8valarrayIdE, .-_ZN7MatricaIdEC2ERKSt8valarrayIdE
	.weak	_ZN7MatricaIdEC1ERKSt8valarrayIdE
	.set	_ZN7MatricaIdEC1ERKSt8valarrayIdE,_ZN7MatricaIdEC2ERKSt8valarrayIdE
	.section	.rodata
.LC36:
	.string	"Matrica nije jednostupcana!"
	.section	.text._ZNK7MatricaIdEcvSt8valarrayIdEEv,"axG",@progbits,_ZNK7MatricaIdEcvSt8valarrayIdEEv,comdat
	.align 2
	.weak	_ZNK7MatricaIdEcvSt8valarrayIdEEv
	.type	_ZNK7MatricaIdEcvSt8valarrayIdEEv, @function
_ZNK7MatricaIdEcvSt8valarrayIdEEv:
.LFB3755:
	.cfi_startproc
	.cfi_personality 0x9b,DW.ref.__gxx_personality_v0
	.cfi_lsda 0x1b,.LLSDA3755
	pushq	%rbp
	.cfi_def_cfa_offset 16
	.cfi_offset 6, -16
	movq	%rsp, %rbp
	.cfi_def_cfa_register 6
	pushq	%r12
	pushq	%rbx
	subq	$80, %rsp
	.cfi_offset 12, -24
	.cfi_offset 3, -32
	movq	%rdi, -88(%rbp)
	movq	%rsi, -96(%rbp)
	movq	-96(%rbp), %rax
	movq	%rax, %rdi
.LEHB148:
	call	_ZNK7MatricaIdE3dimEv
.LEHE148:
	movq	%rax, -72(%rbp)
	movl	-68(%rbp), %eax
	cmpl	$1, %eax
	je	.L386
	movl	$40, %edi
	call	__cxa_allocate_exception@PLT
	movq	%rax, %rbx
	leaq	-25(%rbp), %rax
	movq	%rax, %rdi
	call	_ZNSaIcEC1Ev@PLT
	leaq	-25(%rbp), %rdx
	leaq	-64(%rbp), %rax
	leaq	.LC36(%rip), %rsi
	movq	%rax, %rdi
.LEHB149:
	call	_ZNSt7__cxx1112basic_stringIcSt11char_traitsIcESaIcEEC1EPKcRKS3_@PLT
.LEHE149:
	leaq	-64(%rbp), %rax
	movq	%rax, %rsi
	movq	%rbx, %rdi
.LEHB150:
	call	_ZN17Matrica_exceptionC1ENSt7__cxx1112basic_stringIcSt11char_traitsIcESaIcEEE
.LEHE150:
	leaq	-64(%rbp), %rax
	movq	%rax, %rdi
	call	_ZNSt7__cxx1112basic_stringIcSt11char_traitsIcESaIcEED1Ev@PLT
	leaq	-25(%rbp), %rax
	movq	%rax, %rdi
	call	_ZNSaIcED1Ev@PLT
	leaq	_ZN17Matrica_exceptionD1Ev(%rip), %rdx
	leaq	_ZTI17Matrica_exception(%rip), %rsi
	movq	%rbx, %rdi
.LEHB151:
	call	__cxa_throw@PLT
.L386:
	movl	-72(%rbp), %eax
	movl	%eax, -24(%rbp)
	movl	-24(%rbp), %eax
	movslq	%eax, %rdx
	movq	-88(%rbp), %rax
	movq	%rdx, %rsi
	movq	%rax, %rdi
	call	_ZNSt8valarrayIdEC1Em
.LEHE151:
	movl	$0, -20(%rbp)
.L388:
	movl	-20(%rbp), %eax
	cmpl	-24(%rbp), %eax
	jge	.L396
	movl	-20(%rbp), %edx
	movq	-96(%rbp), %rax
	movl	%edx, %esi
	movq	%rax, %rdi
.LEHB152:
	call	_ZNK7MatricaIdEixEi
.LEHE152:
	movl	$0, %esi
	movq	%rax, %rdi
	call	_ZNKSt6vectorIdSaIdEEixEm
	movq	%rax, %rbx
	movl	-20(%rbp), %eax
	movslq	%eax, %rdx
	movq	-88(%rbp), %rax
	movq	%rdx, %rsi
	movq	%rax, %rdi
	call	_ZNSt8valarrayIdEixEm
	movsd	(%rbx), %xmm0
	movsd	%xmm0, (%rax)
	addl	$1, -20(%rbp)
	jmp	.L388
.L394:
	movq	%rax, %r12
	leaq	-64(%rbp), %rax
	movq	%rax, %rdi
	call	_ZNSt7__cxx1112basic_stringIcSt11char_traitsIcESaIcEED1Ev@PLT
	jmp	.L391
.L393:
	movq	%rax, %r12
.L391:
	leaq	-25(%rbp), %rax
	movq	%rax, %rdi
	call	_ZNSaIcED1Ev@PLT
	movq	%rbx, %rdi
	call	__cxa_free_exception@PLT
	movq	%r12, %rax
	movq	%rax, %rdi
.LEHB153:
	call	_Unwind_Resume@PLT
.L395:
	movq	%rax, %rbx
	movq	-88(%rbp), %rax
	movq	%rax, %rdi
	call	_ZNSt8valarrayIdED1Ev
	movq	%rbx, %rax
	movq	%rax, %rdi
	call	_Unwind_Resume@PLT
.LEHE153:
.L396:
	nop
	movq	-88(%rbp), %rax
	addq	$80, %rsp
	popq	%rbx
	popq	%r12
	popq	%rbp
	.cfi_def_cfa 7, 8
	ret
	.cfi_endproc
.LFE3755:
	.section	.gcc_except_table
.LLSDA3755:
	.byte	0xff
	.byte	0xff
	.byte	0x1
	.uleb128 .LLSDACSE3755-.LLSDACSB3755
.LLSDACSB3755:
	.uleb128 .LEHB148-.LFB3755
	.uleb128 .LEHE148-.LEHB148
	.uleb128 0
	.uleb128 0
	.uleb128 .LEHB149-.LFB3755
	.uleb128 .LEHE149-.LEHB149
	.uleb128 .L393-.LFB3755
	.uleb128 0
	.uleb128 .LEHB150-.LFB3755
	.uleb128 .LEHE150-.LEHB150
	.uleb128 .L394-.LFB3755
	.uleb128 0
	.uleb128 .LEHB151-.LFB3755
	.uleb128 .LEHE151-.LEHB151
	.uleb128 0
	.uleb128 0
	.uleb128 .LEHB152-.LFB3755
	.uleb128 .LEHE152-.LEHB152
	.uleb128 .L395-.LFB3755
	.uleb128 0
	.uleb128 .LEHB153-.LFB3755
	.uleb128 .LEHE153-.LEHB153
	.uleb128 0
	.uleb128 0
.LLSDACSE3755:
	.section	.text._ZNK7MatricaIdEcvSt8valarrayIdEEv,"axG",@progbits,_ZNK7MatricaIdEcvSt8valarrayIdEEv,comdat
	.size	_ZNK7MatricaIdEcvSt8valarrayIdEEv, .-_ZNK7MatricaIdEcvSt8valarrayIdEEv
	.section	.text._ZSt5beginIdEPT_RSt8valarrayIS0_E,"axG",@progbits,_ZSt5beginIdEPT_RSt8valarrayIS0_E,comdat
	.weak	_ZSt5beginIdEPT_RSt8valarrayIS0_E
	.type	_ZSt5beginIdEPT_RSt8valarrayIS0_E, @function
_ZSt5beginIdEPT_RSt8valarrayIS0_E:
.LFB3759:
	.cfi_startproc
	pushq	%rbp
	.cfi_def_cfa_offset 16
	.cfi_offset 6, -16
	movq	%rsp, %rbp
	.cfi_def_cfa_register 6
	subq	$16, %rsp
	movq	%rdi, -8(%rbp)
	movq	-8(%rbp), %rax
	movl	$0, %esi
	movq	%rax, %rdi
	call	_ZNSt8valarrayIdEixEm
	movq	%rax, %rdi
	call	_ZSt11__addressofIdEPT_RS0_
	leave
	.cfi_def_cfa 7, 8
	ret
	.cfi_endproc
.LFE3759:
	.size	_ZSt5beginIdEPT_RSt8valarrayIS0_E, .-_ZSt5beginIdEPT_RSt8valarrayIS0_E
	.section	.text._ZSt3endIdEPT_RSt8valarrayIS0_E,"axG",@progbits,_ZSt3endIdEPT_RSt8valarrayIS0_E,comdat
	.weak	_ZSt3endIdEPT_RSt8valarrayIS0_E
	.type	_ZSt3endIdEPT_RSt8valarrayIS0_E, @function
_ZSt3endIdEPT_RSt8valarrayIS0_E:
.LFB3760:
	.cfi_startproc
	pushq	%rbp
	.cfi_def_cfa_offset 16
	.cfi_offset 6, -16
	movq	%rsp, %rbp
	.cfi_def_cfa_register 6
	pushq	%rbx
	subq	$24, %rsp
	.cfi_offset 3, -24
	movq	%rdi, -24(%rbp)
	movq	-24(%rbp), %rax
	movl	$0, %esi
	movq	%rax, %rdi
	call	_ZNSt8valarrayIdEixEm
	movq	%rax, %rdi
	call	_ZSt11__addressofIdEPT_RS0_
	movq	%rax, %rbx
	movq	-24(%rbp), %rax
	movq	%rax, %rdi
	call	_ZNKSt8valarrayIdE4sizeEv
	salq	$3, %rax
	addq	%rbx, %rax
	addq	$24, %rsp
	popq	%rbx
	popq	%rbp
	.cfi_def_cfa 7, 8
	ret
	.cfi_endproc
.LFE3760:
	.size	_ZSt3endIdEPT_RSt8valarrayIS0_E, .-_ZSt3endIdEPT_RSt8valarrayIS0_E
	.section	.text._ZSt12__niter_baseIPmET_S1_,"axG",@progbits,_ZSt12__niter_baseIPmET_S1_,comdat
	.weak	_ZSt12__niter_baseIPmET_S1_
	.type	_ZSt12__niter_baseIPmET_S1_, @function
_ZSt12__niter_baseIPmET_S1_:
.LFB3762:
	.cfi_startproc
	pushq	%rbp
	.cfi_def_cfa_offset 16
	.cfi_offset 6, -16
	movq	%rsp, %rbp
	.cfi_def_cfa_register 6
	movq	%rdi, -8(%rbp)
	movq	-8(%rbp), %rax
	popq	%rbp
	.cfi_def_cfa 7, 8
	ret
	.cfi_endproc
.LFE3762:
	.size	_ZSt12__niter_baseIPmET_S1_, .-_ZSt12__niter_baseIPmET_S1_
	.section	.text._ZNSt6vectorIS_IdSaIdEESaIS1_EEC2Ev,"axG",@progbits,_ZNSt6vectorIS_IdSaIdEESaIS1_EEC5Ev,comdat
	.align 2
	.weak	_ZNSt6vectorIS_IdSaIdEESaIS1_EEC2Ev
	.type	_ZNSt6vectorIS_IdSaIdEESaIS1_EEC2Ev, @function
_ZNSt6vectorIS_IdSaIdEESaIS1_EEC2Ev:
.LFB3879:
	.cfi_startproc
	.cfi_personality 0x9b,DW.ref.__gxx_personality_v0
	.cfi_lsda 0x1b,.LLSDA3879
	pushq	%rbp
	.cfi_def_cfa_offset 16
	.cfi_offset 6, -16
	movq	%rsp, %rbp
	.cfi_def_cfa_register 6
	subq	$16, %rsp
	movq	%rdi, -8(%rbp)
	movq	-8(%rbp), %rax
	movq	%rax, %rdi
	call	_ZNSt12_Vector_baseISt6vectorIdSaIdEESaIS2_EEC2Ev
	nop
	leave
	.cfi_def_cfa 7, 8
	ret
	.cfi_endproc
.LFE3879:
	.section	.gcc_except_table
.LLSDA3879:
	.byte	0xff
	.byte	0xff
	.byte	0x1
	.uleb128 .LLSDACSE3879-.LLSDACSB3879
.LLSDACSB3879:
.LLSDACSE3879:
	.section	.text._ZNSt6vectorIS_IdSaIdEESaIS1_EEC2Ev,"axG",@progbits,_ZNSt6vectorIS_IdSaIdEESaIS1_EEC5Ev,comdat
	.size	_ZNSt6vectorIS_IdSaIdEESaIS1_EEC2Ev, .-_ZNSt6vectorIS_IdSaIdEESaIS1_EEC2Ev
	.weak	_ZNSt6vectorIS_IdSaIdEESaIS1_EEC1Ev
	.set	_ZNSt6vectorIS_IdSaIdEESaIS1_EEC1Ev,_ZNSt6vectorIS_IdSaIdEESaIS1_EEC2Ev
	.section	.text._ZNSt6vectorIS_IdSaIdEESaIS1_EED2Ev,"axG",@progbits,_ZNSt6vectorIS_IdSaIdEESaIS1_EED5Ev,comdat
	.align 2
	.weak	_ZNSt6vectorIS_IdSaIdEESaIS1_EED2Ev
	.type	_ZNSt6vectorIS_IdSaIdEESaIS1_EED2Ev, @function
_ZNSt6vectorIS_IdSaIdEESaIS1_EED2Ev:
.LFB3882:
	.cfi_startproc
	.cfi_personality 0x9b,DW.ref.__gxx_personality_v0
	.cfi_lsda 0x1b,.LLSDA3882
	pushq	%rbp
	.cfi_def_cfa_offset 16
	.cfi_offset 6, -16
	movq	%rsp, %rbp
	.cfi_def_cfa_register 6
	subq	$16, %rsp
	movq	%rdi, -8(%rbp)
	movq	-8(%rbp), %rax
	movq	%rax, %rdi
	call	_ZNSt12_Vector_baseISt6vectorIdSaIdEESaIS2_EE19_M_get_Tp_allocatorEv
	movq	%rax, %rdx
	movq	-8(%rbp), %rax
	movq	8(%rax), %rcx
	movq	-8(%rbp), %rax
	movq	(%rax), %rax
	movq	%rcx, %rsi
	movq	%rax, %rdi
	call	_ZSt8_DestroyIPSt6vectorIdSaIdEES2_EvT_S4_RSaIT0_E
	movq	-8(%rbp), %rax
	movq	%rax, %rdi
	call	_ZNSt12_Vector_baseISt6vectorIdSaIdEESaIS2_EED2Ev
	nop
	leave
	.cfi_def_cfa 7, 8
	ret
	.cfi_endproc
.LFE3882:
	.section	.gcc_except_table
.LLSDA3882:
	.byte	0xff
	.byte	0xff
	.byte	0x1
	.uleb128 .LLSDACSE3882-.LLSDACSB3882
.LLSDACSB3882:
.LLSDACSE3882:
	.section	.text._ZNSt6vectorIS_IdSaIdEESaIS1_EED2Ev,"axG",@progbits,_ZNSt6vectorIS_IdSaIdEESaIS1_EED5Ev,comdat
	.size	_ZNSt6vectorIS_IdSaIdEESaIS1_EED2Ev, .-_ZNSt6vectorIS_IdSaIdEESaIS1_EED2Ev
	.weak	_ZNSt6vectorIS_IdSaIdEESaIS1_EED1Ev
	.set	_ZNSt6vectorIS_IdSaIdEESaIS1_EED1Ev,_ZNSt6vectorIS_IdSaIdEESaIS1_EED2Ev
	.section	.text._ZNSt6vectorImSaImEEC2Ev,"axG",@progbits,_ZNSt6vectorImSaImEEC5Ev,comdat
	.align 2
	.weak	_ZNSt6vectorImSaImEEC2Ev
	.type	_ZNSt6vectorImSaImEEC2Ev, @function
_ZNSt6vectorImSaImEEC2Ev:
.LFB3885:
	.cfi_startproc
	.cfi_personality 0x9b,DW.ref.__gxx_personality_v0
	.cfi_lsda 0x1b,.LLSDA3885
	pushq	%rbp
	.cfi_def_cfa_offset 16
	.cfi_offset 6, -16
	movq	%rsp, %rbp
	.cfi_def_cfa_register 6
	subq	$16, %rsp
	movq	%rdi, -8(%rbp)
	movq	-8(%rbp), %rax
	movq	%rax, %rdi
	call	_ZNSt12_Vector_baseImSaImEEC2Ev
	nop
	leave
	.cfi_def_cfa 7, 8
	ret
	.cfi_endproc
.LFE3885:
	.section	.gcc_except_table
.LLSDA3885:
	.byte	0xff
	.byte	0xff
	.byte	0x1
	.uleb128 .LLSDACSE3885-.LLSDACSB3885
.LLSDACSB3885:
.LLSDACSE3885:
	.section	.text._ZNSt6vectorImSaImEEC2Ev,"axG",@progbits,_ZNSt6vectorImSaImEEC5Ev,comdat
	.size	_ZNSt6vectorImSaImEEC2Ev, .-_ZNSt6vectorImSaImEEC2Ev
	.weak	_ZNSt6vectorImSaImEEC1Ev
	.set	_ZNSt6vectorImSaImEEC1Ev,_ZNSt6vectorImSaImEEC2Ev
	.section	.text._ZNSt6vectorImSaImEED2Ev,"axG",@progbits,_ZNSt6vectorImSaImEED5Ev,comdat
	.align 2
	.weak	_ZNSt6vectorImSaImEED2Ev
	.type	_ZNSt6vectorImSaImEED2Ev, @function
_ZNSt6vectorImSaImEED2Ev:
.LFB3888:
	.cfi_startproc
	.cfi_personality 0x9b,DW.ref.__gxx_personality_v0
	.cfi_lsda 0x1b,.LLSDA3888
	pushq	%rbp
	.cfi_def_cfa_offset 16
	.cfi_offset 6, -16
	movq	%rsp, %rbp
	.cfi_def_cfa_register 6
	subq	$16, %rsp
	movq	%rdi, -8(%rbp)
	movq	-8(%rbp), %rax
	movq	%rax, %rdi
	call	_ZNSt12_Vector_baseImSaImEE19_M_get_Tp_allocatorEv
	movq	%rax, %rdx
	movq	-8(%rbp), %rax
	movq	8(%rax), %rcx
	movq	-8(%rbp), %rax
	movq	(%rax), %rax
	movq	%rcx, %rsi
	movq	%rax, %rdi
	call	_ZSt8_DestroyIPmmEvT_S1_RSaIT0_E
	movq	-8(%rbp), %rax
	movq	%rax, %rdi
	call	_ZNSt12_Vector_baseImSaImEED2Ev
	nop
	leave
	.cfi_def_cfa 7, 8
	ret
	.cfi_endproc
.LFE3888:
	.section	.gcc_except_table
.LLSDA3888:
	.byte	0xff
	.byte	0xff
	.byte	0x1
	.uleb128 .LLSDACSE3888-.LLSDACSB3888
.LLSDACSB3888:
.LLSDACSE3888:
	.section	.text._ZNSt6vectorImSaImEED2Ev,"axG",@progbits,_ZNSt6vectorImSaImEED5Ev,comdat
	.size	_ZNSt6vectorImSaImEED2Ev, .-_ZNSt6vectorImSaImEED2Ev
	.weak	_ZNSt6vectorImSaImEED1Ev
	.set	_ZNSt6vectorImSaImEED1Ev,_ZNSt6vectorImSaImEED2Ev
	.section	.text._ZN7MatricaIdE5splitERNSt7__cxx1112basic_stringIcSt11char_traitsIcESaIcEEE,"axG",@progbits,_ZN7MatricaIdE5splitERNSt7__cxx1112basic_stringIcSt11char_traitsIcESaIcEEE,comdat
	.align 2
	.weak	_ZN7MatricaIdE5splitERNSt7__cxx1112basic_stringIcSt11char_traitsIcESaIcEEE
	.type	_ZN7MatricaIdE5splitERNSt7__cxx1112basic_stringIcSt11char_traitsIcESaIcEEE, @function
_ZN7MatricaIdE5splitERNSt7__cxx1112basic_stringIcSt11char_traitsIcESaIcEEE:
.LFB3902:
	.cfi_startproc
	.cfi_personality 0x9b,DW.ref.__gxx_personality_v0
	.cfi_lsda 0x1b,.LLSDA3902
	pushq	%rbp
	.cfi_def_cfa_offset 16
	.cfi_offset 6, -16
	movq	%rsp, %rbp
	.cfi_def_cfa_register 6
	pushq	%rbx
	subq	$424, %rsp
	.cfi_offset 3, -24
	movq	%rdi, -424(%rbp)
	movq	%rsi, -432(%rbp)
	movq	-432(%rbp), %rcx
	leaq	-400(%rbp), %rax
	movl	$8, %edx
	movq	%rcx, %rsi
	movq	%rax, %rdi
.LEHB154:
	call	_ZNSt7__cxx1119basic_istringstreamIcSt11char_traitsIcESaIcEEC1ERKNS_12basic_stringIcS2_S3_EESt13_Ios_Openmode@PLT
.LEHE154:
	movq	-424(%rbp), %rax
	movq	%rax, %rdi
	call	_ZNSt6vectorIdSaIdEEC1Ev
.L410:
	leaq	-400(%rbp), %rax
	addq	$120, %rax
	movq	%rax, %rdi
.LEHB155:
	call	_ZNKSt9basic_iosIcSt11char_traitsIcEEcvbEv@PLT
	testb	%al, %al
	je	.L416
	leaq	-408(%rbp), %rdx
	leaq	-400(%rbp), %rax
	movq	%rdx, %rsi
	movq	%rax, %rdi
	call	_ZNSirsERd@PLT
	leaq	-400(%rbp), %rax
	addq	$120, %rax
	movq	%rax, %rdi
	call	_ZNKSt9basic_iosIcSt11char_traitsIcEEntEv@PLT
	testb	%al, %al
	je	.L409
	nop
	jmp	.L416
.L409:
	leaq	-408(%rbp), %rdx
	movq	-424(%rbp), %rax
	movq	%rdx, %rsi
	movq	%rax, %rdi
	call	_ZNSt6vectorIdSaIdEE9push_backERKd
.LEHE155:
	jmp	.L410
.L416:
	nop
	leaq	-400(%rbp), %rax
	movq	%rax, %rdi
	call	_ZNSt7__cxx1119basic_istringstreamIcSt11char_traitsIcESaIcEED1Ev@PLT
	jmp	.L415
.L413:
	movq	%rax, %rbx
	movq	-424(%rbp), %rax
	movq	%rax, %rdi
	call	_ZNSt6vectorIdSaIdEED1Ev
	leaq	-400(%rbp), %rax
	movq	%rax, %rdi
	call	_ZNSt7__cxx1119basic_istringstreamIcSt11char_traitsIcESaIcEED1Ev@PLT
	movq	%rbx, %rax
	movq	%rax, %rdi
.LEHB156:
	call	_Unwind_Resume@PLT
.LEHE156:
.L415:
	movq	-424(%rbp), %rax
	addq	$424, %rsp
	popq	%rbx
	popq	%rbp
	.cfi_def_cfa 7, 8
	ret
	.cfi_endproc
.LFE3902:
	.section	.gcc_except_table
.LLSDA3902:
	.byte	0xff
	.byte	0xff
	.byte	0x1
	.uleb128 .LLSDACSE3902-.LLSDACSB3902
.LLSDACSB3902:
	.uleb128 .LEHB154-.LFB3902
	.uleb128 .LEHE154-.LEHB154
	.uleb128 0
	.uleb128 0
	.uleb128 .LEHB155-.LFB3902
	.uleb128 .LEHE155-.LEHB155
	.uleb128 .L413-.LFB3902
	.uleb128 0
	.uleb128 .LEHB156-.LFB3902
	.uleb128 .LEHE156-.LEHB156
	.uleb128 0
	.uleb128 0
.LLSDACSE3902:
	.section	.text._ZN7MatricaIdE5splitERNSt7__cxx1112basic_stringIcSt11char_traitsIcESaIcEEE,"axG",@progbits,_ZN7MatricaIdE5splitERNSt7__cxx1112basic_stringIcSt11char_traitsIcESaIcEEE,comdat
	.size	_ZN7MatricaIdE5splitERNSt7__cxx1112basic_stringIcSt11char_traitsIcESaIcEEE, .-_ZN7MatricaIdE5splitERNSt7__cxx1112basic_stringIcSt11char_traitsIcESaIcEEE
	.section	.text._ZNSt6vectorIdSaIdEED2Ev,"axG",@progbits,_ZNSt6vectorIdSaIdEED5Ev,comdat
	.align 2
	.weak	_ZNSt6vectorIdSaIdEED2Ev
	.type	_ZNSt6vectorIdSaIdEED2Ev, @function
_ZNSt6vectorIdSaIdEED2Ev:
.LFB3904:
	.cfi_startproc
	.cfi_personality 0x9b,DW.ref.__gxx_personality_v0
	.cfi_lsda 0x1b,.LLSDA3904
	pushq	%rbp
	.cfi_def_cfa_offset 16
	.cfi_offset 6, -16
	movq	%rsp, %rbp
	.cfi_def_cfa_register 6
	subq	$16, %rsp
	movq	%rdi, -8(%rbp)
	movq	-8(%rbp), %rax
	movq	%rax, %rdi
	call	_ZNSt12_Vector_baseIdSaIdEE19_M_get_Tp_allocatorEv
	movq	%rax, %rdx
	movq	-8(%rbp), %rax
	movq	8(%rax), %rcx
	movq	-8(%rbp), %rax
	movq	(%rax), %rax
	movq	%rcx, %rsi
	movq	%rax, %rdi
	call	_ZSt8_DestroyIPddEvT_S1_RSaIT0_E
	movq	-8(%rbp), %rax
	movq	%rax, %rdi
	call	_ZNSt12_Vector_baseIdSaIdEED2Ev
	nop
	leave
	.cfi_def_cfa 7, 8
	ret
	.cfi_endproc
.LFE3904:
	.section	.gcc_except_table
.LLSDA3904:
	.byte	0xff
	.byte	0xff
	.byte	0x1
	.uleb128 .LLSDACSE3904-.LLSDACSB3904
.LLSDACSB3904:
.LLSDACSE3904:
	.section	.text._ZNSt6vectorIdSaIdEED2Ev,"axG",@progbits,_ZNSt6vectorIdSaIdEED5Ev,comdat
	.size	_ZNSt6vectorIdSaIdEED2Ev, .-_ZNSt6vectorIdSaIdEED2Ev
	.weak	_ZNSt6vectorIdSaIdEED1Ev
	.set	_ZNSt6vectorIdSaIdEED1Ev,_ZNSt6vectorIdSaIdEED2Ev
	.section	.text._ZNSt6vectorIdSaIdEEC2EOS1_,"axG",@progbits,_ZNSt6vectorIdSaIdEEC5EOS1_,comdat
	.align 2
	.weak	_ZNSt6vectorIdSaIdEEC2EOS1_
	.type	_ZNSt6vectorIdSaIdEEC2EOS1_, @function
_ZNSt6vectorIdSaIdEEC2EOS1_:
.LFB3907:
	.cfi_startproc
	pushq	%rbp
	.cfi_def_cfa_offset 16
	.cfi_offset 6, -16
	movq	%rsp, %rbp
	.cfi_def_cfa_register 6
	pushq	%rbx
	subq	$24, %rsp
	.cfi_offset 3, -24
	movq	%rdi, -24(%rbp)
	movq	%rsi, -32(%rbp)
	movq	-24(%rbp), %rbx
	movq	-32(%rbp), %rax
	movq	%rax, %rdi
	call	_ZSt4moveIRSt6vectorIdSaIdEEEONSt16remove_referenceIT_E4typeEOS5_
	movq	%rax, %rsi
	movq	%rbx, %rdi
	call	_ZNSt12_Vector_baseIdSaIdEEC2EOS1_
	nop
	addq	$24, %rsp
	popq	%rbx
	popq	%rbp
	.cfi_def_cfa 7, 8
	ret
	.cfi_endproc
.LFE3907:
	.size	_ZNSt6vectorIdSaIdEEC2EOS1_, .-_ZNSt6vectorIdSaIdEEC2EOS1_
	.weak	_ZNSt6vectorIdSaIdEEC1EOS1_
	.set	_ZNSt6vectorIdSaIdEEC1EOS1_,_ZNSt6vectorIdSaIdEEC2EOS1_
	.section	.text._ZNKSt6vectorIdSaIdEE4sizeEv,"axG",@progbits,_ZNKSt6vectorIdSaIdEE4sizeEv,comdat
	.align 2
	.weak	_ZNKSt6vectorIdSaIdEE4sizeEv
	.type	_ZNKSt6vectorIdSaIdEE4sizeEv, @function
_ZNKSt6vectorIdSaIdEE4sizeEv:
.LFB3909:
	.cfi_startproc
	pushq	%rbp
	.cfi_def_cfa_offset 16
	.cfi_offset 6, -16
	movq	%rsp, %rbp
	.cfi_def_cfa_register 6
	movq	%rdi, -8(%rbp)
	movq	-8(%rbp), %rax
	movq	8(%rax), %rax
	movq	%rax, %rdx
	movq	-8(%rbp), %rax
	movq	(%rax), %rax
	subq	%rax, %rdx
	movq	%rdx, %rax
	sarq	$3, %rax
	popq	%rbp
	.cfi_def_cfa 7, 8
	ret
	.cfi_endproc
.LFE3909:
	.size	_ZNKSt6vectorIdSaIdEE4sizeEv, .-_ZNKSt6vectorIdSaIdEE4sizeEv
	.section	.text._ZNSt6vectorIS_IdSaIdEESaIS1_EE9push_backERKS1_,"axG",@progbits,_ZNSt6vectorIS_IdSaIdEESaIS1_EE9push_backERKS1_,comdat
	.align 2
	.weak	_ZNSt6vectorIS_IdSaIdEESaIS1_EE9push_backERKS1_
	.type	_ZNSt6vectorIS_IdSaIdEESaIS1_EE9push_backERKS1_, @function
_ZNSt6vectorIS_IdSaIdEESaIS1_EE9push_backERKS1_:
.LFB3910:
	.cfi_startproc
	pushq	%rbp
	.cfi_def_cfa_offset 16
	.cfi_offset 6, -16
	movq	%rsp, %rbp
	.cfi_def_cfa_register 6
	subq	$16, %rsp
	movq	%rdi, -8(%rbp)
	movq	%rsi, -16(%rbp)
	movq	-8(%rbp), %rax
	movq	8(%rax), %rdx
	movq	-8(%rbp), %rax
	movq	16(%rax), %rax
	cmpq	%rax, %rdx
	je	.L422
	movq	-8(%rbp), %rax
	movq	8(%rax), %rcx
	movq	-8(%rbp), %rax
	movq	-16(%rbp), %rdx
	movq	%rcx, %rsi
	movq	%rax, %rdi
	call	_ZNSt16allocator_traitsISaISt6vectorIdSaIdEEEE9constructIS2_JRKS2_EEEvRS3_PT_DpOT0_
	movq	-8(%rbp), %rax
	movq	8(%rax), %rax
	leaq	24(%rax), %rdx
	movq	-8(%rbp), %rax
	movq	%rdx, 8(%rax)
	jmp	.L424
.L422:
	movq	-8(%rbp), %rax
	movq	%rax, %rdi
	call	_ZNSt6vectorIS_IdSaIdEESaIS1_EE3endEv
	movq	%rax, %rcx
	movq	-16(%rbp), %rdx
	movq	-8(%rbp), %rax
	movq	%rcx, %rsi
	movq	%rax, %rdi
	call	_ZNSt6vectorIS_IdSaIdEESaIS1_EE17_M_realloc_insertIJRKS1_EEEvN9__gnu_cxx17__normal_iteratorIPS1_S3_EEDpOT_
.L424:
	nop
	leave
	.cfi_def_cfa 7, 8
	ret
	.cfi_endproc
.LFE3910:
	.size	_ZNSt6vectorIS_IdSaIdEESaIS1_EE9push_backERKS1_, .-_ZNSt6vectorIS_IdSaIdEESaIS1_EE9push_backERKS1_
	.section	.text._ZNKSt6vectorIS_IdSaIdEESaIS1_EE4sizeEv,"axG",@progbits,_ZNKSt6vectorIS_IdSaIdEESaIS1_EE4sizeEv,comdat
	.align 2
	.weak	_ZNKSt6vectorIS_IdSaIdEESaIS1_EE4sizeEv
	.type	_ZNKSt6vectorIS_IdSaIdEESaIS1_EE4sizeEv, @function
_ZNKSt6vectorIS_IdSaIdEESaIS1_EE4sizeEv:
.LFB3911:
	.cfi_startproc
	pushq	%rbp
	.cfi_def_cfa_offset 16
	.cfi_offset 6, -16
	movq	%rsp, %rbp
	.cfi_def_cfa_register 6
	movq	%rdi, -8(%rbp)
	movq	-8(%rbp), %rax
	movq	8(%rax), %rax
	movq	%rax, %rdx
	movq	-8(%rbp), %rax
	movq	(%rax), %rax
	subq	%rax, %rdx
	movq	%rdx, %rax
	sarq	$3, %rax
	movq	%rax, %rdx
	movabsq	$-6148914691236517205, %rax
	imulq	%rdx, %rax
	popq	%rbp
	.cfi_def_cfa 7, 8
	ret
	.cfi_endproc
.LFE3911:
	.size	_ZNKSt6vectorIS_IdSaIdEESaIS1_EE4sizeEv, .-_ZNKSt6vectorIS_IdSaIdEESaIS1_EE4sizeEv
	.section	.text._ZNSt6vectorIS_IdSaIdEESaIS1_EEixEm,"axG",@progbits,_ZNSt6vectorIS_IdSaIdEESaIS1_EEixEm,comdat
	.align 2
	.weak	_ZNSt6vectorIS_IdSaIdEESaIS1_EEixEm
	.type	_ZNSt6vectorIS_IdSaIdEESaIS1_EEixEm, @function
_ZNSt6vectorIS_IdSaIdEESaIS1_EEixEm:
.LFB3912:
	.cfi_startproc
	pushq	%rbp
	.cfi_def_cfa_offset 16
	.cfi_offset 6, -16
	movq	%rsp, %rbp
	.cfi_def_cfa_register 6
	movq	%rdi, -8(%rbp)
	movq	%rsi, -16(%rbp)
	movq	-8(%rbp), %rax
	movq	(%rax), %rcx
	movq	-16(%rbp), %rdx
	movq	%rdx, %rax
	addq	%rax, %rax
	addq	%rdx, %rax
	salq	$3, %rax
	addq	%rcx, %rax
	popq	%rbp
	.cfi_def_cfa 7, 8
	ret
	.cfi_endproc
.LFE3912:
	.size	_ZNSt6vectorIS_IdSaIdEESaIS1_EEixEm, .-_ZNSt6vectorIS_IdSaIdEESaIS1_EEixEm
	.section	.text._ZNSt6vectorImSaImEE6resizeEm,"axG",@progbits,_ZNSt6vectorImSaImEE6resizeEm,comdat
	.align 2
	.weak	_ZNSt6vectorImSaImEE6resizeEm
	.type	_ZNSt6vectorImSaImEE6resizeEm, @function
_ZNSt6vectorImSaImEE6resizeEm:
.LFB3913:
	.cfi_startproc
	pushq	%rbp
	.cfi_def_cfa_offset 16
	.cfi_offset 6, -16
	movq	%rsp, %rbp
	.cfi_def_cfa_register 6
	subq	$16, %rsp
	movq	%rdi, -8(%rbp)
	movq	%rsi, -16(%rbp)
	movq	-8(%rbp), %rax
	movq	%rax, %rdi
	call	_ZNKSt6vectorImSaImEE4sizeEv
	cmpq	%rax, -16(%rbp)
	seta	%al
	testb	%al, %al
	je	.L430
	movq	-8(%rbp), %rax
	movq	%rax, %rdi
	call	_ZNKSt6vectorImSaImEE4sizeEv
	movq	%rax, %rdx
	movq	-16(%rbp), %rax
	subq	%rdx, %rax
	movq	%rax, %rdx
	movq	-8(%rbp), %rax
	movq	%rdx, %rsi
	movq	%rax, %rdi
	call	_ZNSt6vectorImSaImEE17_M_default_appendEm
	jmp	.L432
.L430:
	movq	-8(%rbp), %rax
	movq	%rax, %rdi
	call	_ZNKSt6vectorImSaImEE4sizeEv
	cmpq	%rax, -16(%rbp)
	setb	%al
	testb	%al, %al
	je	.L432
	movq	-8(%rbp), %rax
	movq	(%rax), %rax
	movq	-16(%rbp), %rdx
	salq	$3, %rdx
	addq	%rax, %rdx
	movq	-8(%rbp), %rax
	movq	%rdx, %rsi
	movq	%rax, %rdi
	call	_ZNSt6vectorImSaImEE15_M_erase_at_endEPm
.L432:
	nop
	leave
	.cfi_def_cfa 7, 8
	ret
	.cfi_endproc
.LFE3913:
	.size	_ZNSt6vectorImSaImEE6resizeEm, .-_ZNSt6vectorImSaImEE6resizeEm
	.section	.text._ZNKSt6vectorImSaImEE4sizeEv,"axG",@progbits,_ZNKSt6vectorImSaImEE4sizeEv,comdat
	.align 2
	.weak	_ZNKSt6vectorImSaImEE4sizeEv
	.type	_ZNKSt6vectorImSaImEE4sizeEv, @function
_ZNKSt6vectorImSaImEE4sizeEv:
.LFB3914:
	.cfi_startproc
	pushq	%rbp
	.cfi_def_cfa_offset 16
	.cfi_offset 6, -16
	movq	%rsp, %rbp
	.cfi_def_cfa_register 6
	movq	%rdi, -8(%rbp)
	movq	-8(%rbp), %rax
	movq	8(%rax), %rax
	movq	%rax, %rdx
	movq	-8(%rbp), %rax
	movq	(%rax), %rax
	subq	%rax, %rdx
	movq	%rdx, %rax
	sarq	$3, %rax
	popq	%rbp
	.cfi_def_cfa 7, 8
	ret
	.cfi_endproc
.LFE3914:
	.size	_ZNKSt6vectorImSaImEE4sizeEv, .-_ZNKSt6vectorImSaImEE4sizeEv
	.section	.text._ZNSt6vectorImSaImEEixEm,"axG",@progbits,_ZNSt6vectorImSaImEEixEm,comdat
	.align 2
	.weak	_ZNSt6vectorImSaImEEixEm
	.type	_ZNSt6vectorImSaImEEixEm, @function
_ZNSt6vectorImSaImEEixEm:
.LFB3915:
	.cfi_startproc
	pushq	%rbp
	.cfi_def_cfa_offset 16
	.cfi_offset 6, -16
	movq	%rsp, %rbp
	.cfi_def_cfa_register 6
	movq	%rdi, -8(%rbp)
	movq	%rsi, -16(%rbp)
	movq	-8(%rbp), %rax
	movq	(%rax), %rax
	movq	-16(%rbp), %rdx
	salq	$3, %rdx
	addq	%rdx, %rax
	popq	%rbp
	.cfi_def_cfa 7, 8
	ret
	.cfi_endproc
.LFE3915:
	.size	_ZNSt6vectorImSaImEEixEm, .-_ZNSt6vectorImSaImEEixEm
	.section	.text._ZNK7MatricaIdE3dimEv,"axG",@progbits,_ZNK7MatricaIdE3dimEv,comdat
	.align 2
	.weak	_ZNK7MatricaIdE3dimEv
	.type	_ZNK7MatricaIdE3dimEv, @function
_ZNK7MatricaIdE3dimEv:
.LFB3916:
	.cfi_startproc
	pushq	%rbp
	.cfi_def_cfa_offset 16
	.cfi_offset 6, -16
	movq	%rsp, %rbp
	.cfi_def_cfa_register 6
	subq	$64, %rsp
	movq	%rdi, -56(%rbp)
	movq	-56(%rbp), %rax
	addq	$8, %rax
	movl	$0, %esi
	movq	%rax, %rdi
	call	_ZNKSt6vectorIS_IdSaIdEESaIS1_EEixEm
	movq	%rax, %rdi
	call	_ZNKSt6vectorIdSaIdEE4sizeEv
	movq	%rax, -16(%rbp)
	movq	-56(%rbp), %rax
	addq	$8, %rax
	movq	%rax, %rdi
	call	_ZNKSt6vectorIS_IdSaIdEESaIS1_EE4sizeEv
	movq	%rax, -8(%rbp)
	leaq	-16(%rbp), %rdx
	leaq	-8(%rbp), %rax
	movq	%rdx, %rsi
	movq	%rax, %rdi
	call	_ZSt9make_pairImmESt4pairINSt17__decay_and_stripIT_E6__typeENS1_IT0_E6__typeEEOS2_OS5_
	movq	%rax, -32(%rbp)
	movq	%rdx, -24(%rbp)
	leaq	-32(%rbp), %rdx
	leaq	-40(%rbp), %rax
	movq	%rdx, %rsi
	movq	%rax, %rdi
	call	_ZNSt4pairIiiEC1ImmLb1EEEOS_IT_T0_E
	movq	-40(%rbp), %rax
	leave
	.cfi_def_cfa 7, 8
	ret
	.cfi_endproc
.LFE3916:
	.size	_ZNK7MatricaIdE3dimEv, .-_ZNK7MatricaIdE3dimEv
	.section	.text._ZNK7MatricaIdEixEi,"axG",@progbits,_ZNK7MatricaIdEixEi,comdat
	.align 2
	.weak	_ZNK7MatricaIdEixEi
	.type	_ZNK7MatricaIdEixEi, @function
_ZNK7MatricaIdEixEi:
.LFB3921:
	.cfi_startproc
	pushq	%rbp
	.cfi_def_cfa_offset 16
	.cfi_offset 6, -16
	movq	%rsp, %rbp
	.cfi_def_cfa_register 6
	subq	$16, %rsp
	movq	%rdi, -8(%rbp)
	movl	%esi, -12(%rbp)
	movl	-12(%rbp), %edx
	movq	-8(%rbp), %rax
	movl	%edx, %esi
	movq	%rax, %rdi
	call	_Z11check_indexIdEvRK7MatricaIT_Ei
	movl	-12(%rbp), %eax
	cltq
	movq	-8(%rbp), %rdx
	addq	$32, %rdx
	movq	%rax, %rsi
	movq	%rdx, %rdi
	call	_ZNKSt6vectorImSaImEEixEm
	movq	(%rax), %rax
	movq	-8(%rbp), %rdx
	addq	$8, %rdx
	movq	%rax, %rsi
	movq	%rdx, %rdi
	call	_ZNKSt6vectorIS_IdSaIdEESaIS1_EEixEm
	leave
	.cfi_def_cfa 7, 8
	ret
	.cfi_endproc
.LFE3921:
	.size	_ZNK7MatricaIdEixEi, .-_ZNK7MatricaIdEixEi
	.section	.text._ZNKSt6vectorIdSaIdEEixEm,"axG",@progbits,_ZNKSt6vectorIdSaIdEEixEm,comdat
	.align 2
	.weak	_ZNKSt6vectorIdSaIdEEixEm
	.type	_ZNKSt6vectorIdSaIdEEixEm, @function
_ZNKSt6vectorIdSaIdEEixEm:
.LFB3922:
	.cfi_startproc
	pushq	%rbp
	.cfi_def_cfa_offset 16
	.cfi_offset 6, -16
	movq	%rsp, %rbp
	.cfi_def_cfa_register 6
	movq	%rdi, -8(%rbp)
	movq	%rsi, -16(%rbp)
	movq	-8(%rbp), %rax
	movq	(%rax), %rax
	movq	-16(%rbp), %rdx
	salq	$3, %rdx
	addq	%rdx, %rax
	popq	%rbp
	.cfi_def_cfa 7, 8
	ret
	.cfi_endproc
.LFE3922:
	.size	_ZNKSt6vectorIdSaIdEEixEm, .-_ZNKSt6vectorIdSaIdEEixEm
	.section	.text._ZNKSt6vectorIS_IdSaIdEESaIS1_EEixEm,"axG",@progbits,_ZNKSt6vectorIS_IdSaIdEESaIS1_EEixEm,comdat
	.align 2
	.weak	_ZNKSt6vectorIS_IdSaIdEESaIS1_EEixEm
	.type	_ZNKSt6vectorIS_IdSaIdEESaIS1_EEixEm, @function
_ZNKSt6vectorIS_IdSaIdEESaIS1_EEixEm:
.LFB3924:
	.cfi_startproc
	pushq	%rbp
	.cfi_def_cfa_offset 16
	.cfi_offset 6, -16
	movq	%rsp, %rbp
	.cfi_def_cfa_register 6
	movq	%rdi, -8(%rbp)
	movq	%rsi, -16(%rbp)
	movq	-8(%rbp), %rax
	movq	(%rax), %rcx
	movq	-16(%rbp), %rdx
	movq	%rdx, %rax
	addq	%rax, %rax
	addq	%rdx, %rax
	salq	$3, %rax
	addq	%rcx, %rax
	popq	%rbp
	.cfi_def_cfa 7, 8
	ret
	.cfi_endproc
.LFE3924:
	.size	_ZNKSt6vectorIS_IdSaIdEESaIS1_EEixEm, .-_ZNKSt6vectorIS_IdSaIdEESaIS1_EEixEm
	.section	.text._ZN7MatricaIdEC2Eii,"axG",@progbits,_ZN7MatricaIdEC5Eii,comdat
	.align 2
	.weak	_ZN7MatricaIdEC2Eii
	.type	_ZN7MatricaIdEC2Eii, @function
_ZN7MatricaIdEC2Eii:
.LFB3926:
	.cfi_startproc
	.cfi_personality 0x9b,DW.ref.__gxx_personality_v0
	.cfi_lsda 0x1b,.LLSDA3926
	pushq	%rbp
	.cfi_def_cfa_offset 16
	.cfi_offset 6, -16
	movq	%rsp, %rbp
	.cfi_def_cfa_register 6
	pushq	%rbx
	subq	$72, %rsp
	.cfi_offset 3, -24
	movq	%rdi, -72(%rbp)
	movl	%esi, -76(%rbp)
	movl	%edx, -80(%rbp)
	leaq	16+_ZTV7MatricaIdE(%rip), %rdx
	movq	-72(%rbp), %rax
	movq	%rdx, (%rax)
	movq	-72(%rbp), %rax
	leaq	8(%rax), %rbx
	leaq	-42(%rbp), %rax
	movq	%rax, %rdi
	call	_ZNSaISt6vectorIdSaIdEEEC1Ev
	movl	-76(%rbp), %eax
	cltq
	leaq	-42(%rbp), %rdx
	movq	%rax, %rsi
	movq	%rbx, %rdi
.LEHB157:
	call	_ZNSt6vectorIS_IdSaIdEESaIS1_EEC1EmRKS2_
.LEHE157:
	leaq	-42(%rbp), %rax
	movq	%rax, %rdi
	call	_ZNSaISt6vectorIdSaIdEEED1Ev
	movq	-72(%rbp), %rax
	leaq	32(%rax), %rbx
	leaq	-41(%rbp), %rax
	movq	%rax, %rdi
	call	_ZNSaImEC1Ev
	movl	-76(%rbp), %eax
	cltq
	leaq	-41(%rbp), %rdx
	movq	%rax, %rsi
	movq	%rbx, %rdi
.LEHB158:
	call	_ZNSt6vectorImSaImEEC1EmRKS0_
.LEHE158:
	leaq	-41(%rbp), %rax
	movq	%rax, %rdi
	call	_ZNSaImED1Ev
	movq	-72(%rbp), %rax
	addq	$8, %rax
	movq	%rax, -32(%rbp)
	movq	-32(%rbp), %rax
	movq	%rax, %rdi
	call	_ZNSt6vectorIS_IdSaIdEESaIS1_EE5beginEv
	movq	%rax, -56(%rbp)
	movq	-32(%rbp), %rax
	movq	%rax, %rdi
	call	_ZNSt6vectorIS_IdSaIdEESaIS1_EE3endEv
	movq	%rax, -64(%rbp)
.L447:
	leaq	-64(%rbp), %rdx
	leaq	-56(%rbp), %rax
	movq	%rdx, %rsi
	movq	%rax, %rdi
	call	_ZN9__gnu_cxxneIPSt6vectorIdSaIdEES1_IS3_SaIS3_EEEEbRKNS_17__normal_iteratorIT_T0_EESC_
	testb	%al, %al
	je	.L446
	leaq	-56(%rbp), %rax
	movq	%rax, %rdi
	call	_ZNK9__gnu_cxx17__normal_iteratorIPSt6vectorIdSaIdEES1_IS3_SaIS3_EEEdeEv
	movq	%rax, -40(%rbp)
	movl	-80(%rbp), %eax
	movslq	%eax, %rdx
	movq	-40(%rbp), %rax
	movq	%rdx, %rsi
	movq	%rax, %rdi
.LEHB159:
	call	_ZNSt6vectorIdSaIdEE6resizeEm
.LEHE159:
	leaq	-56(%rbp), %rax
	movq	%rax, %rdi
	call	_ZN9__gnu_cxx17__normal_iteratorIPSt6vectorIdSaIdEES1_IS3_SaIS3_EEEppEv
	jmp	.L447
.L446:
	movl	$0, -20(%rbp)
.L449:
	movl	-20(%rbp), %eax
	cmpl	-76(%rbp), %eax
	jge	.L457
	movl	-20(%rbp), %eax
	cltq
	movq	-72(%rbp), %rdx
	addq	$32, %rdx
	movq	%rax, %rsi
	movq	%rdx, %rdi
	call	_ZNSt6vectorImSaImEEixEm
	movq	%rax, %rdx
	movl	-20(%rbp), %eax
	cltq
	movq	%rax, (%rdx)
	addl	$1, -20(%rbp)
	jmp	.L449
.L454:
	movq	%rax, %rbx
	leaq	-42(%rbp), %rax
	movq	%rax, %rdi
	call	_ZNSaISt6vectorIdSaIdEEED1Ev
	movq	%rbx, %rax
	movq	%rax, %rdi
.LEHB160:
	call	_Unwind_Resume@PLT
.L455:
	movq	%rax, %rbx
	leaq	-41(%rbp), %rax
	movq	%rax, %rdi
	call	_ZNSaImED1Ev
	jmp	.L452
.L456:
	movq	%rax, %rbx
	movq	-72(%rbp), %rax
	addq	$32, %rax
	movq	%rax, %rdi
	call	_ZNSt6vectorImSaImEED1Ev
.L452:
	movq	-72(%rbp), %rax
	addq	$8, %rax
	movq	%rax, %rdi
	call	_ZNSt6vectorIS_IdSaIdEESaIS1_EED1Ev
	movq	%rbx, %rax
	movq	%rax, %rdi
	call	_Unwind_Resume@PLT
.LEHE160:
.L457:
	nop
	addq	$72, %rsp
	popq	%rbx
	popq	%rbp
	.cfi_def_cfa 7, 8
	ret
	.cfi_endproc
.LFE3926:
	.section	.gcc_except_table
.LLSDA3926:
	.byte	0xff
	.byte	0xff
	.byte	0x1
	.uleb128 .LLSDACSE3926-.LLSDACSB3926
.LLSDACSB3926:
	.uleb128 .LEHB157-.LFB3926
	.uleb128 .LEHE157-.LEHB157
	.uleb128 .L454-.LFB3926
	.uleb128 0
	.uleb128 .LEHB158-.LFB3926
	.uleb128 .LEHE158-.LEHB158
	.uleb128 .L455-.LFB3926
	.uleb128 0
	.uleb128 .LEHB159-.LFB3926
	.uleb128 .LEHE159-.LEHB159
	.uleb128 .L456-.LFB3926
	.uleb128 0
	.uleb128 .LEHB160-.LFB3926
	.uleb128 .LEHE160-.LEHB160
	.uleb128 0
	.uleb128 0
.LLSDACSE3926:
	.section	.text._ZN7MatricaIdEC2Eii,"axG",@progbits,_ZN7MatricaIdEC5Eii,comdat
	.size	_ZN7MatricaIdEC2Eii, .-_ZN7MatricaIdEC2Eii
	.weak	_ZN7MatricaIdEC1Eii
	.set	_ZN7MatricaIdEC1Eii,_ZN7MatricaIdEC2Eii
	.section	.text._ZN7MatricaIdEixEi,"axG",@progbits,_ZN7MatricaIdEixEi,comdat
	.align 2
	.weak	_ZN7MatricaIdEixEi
	.type	_ZN7MatricaIdEixEi, @function
_ZN7MatricaIdEixEi:
.LFB3928:
	.cfi_startproc
	pushq	%rbp
	.cfi_def_cfa_offset 16
	.cfi_offset 6, -16
	movq	%rsp, %rbp
	.cfi_def_cfa_register 6
	subq	$16, %rsp
	movq	%rdi, -8(%rbp)
	movl	%esi, -12(%rbp)
	movl	-12(%rbp), %edx
	movq	-8(%rbp), %rax
	movl	%edx, %esi
	movq	%rax, %rdi
	call	_Z11check_indexIdEvRK7MatricaIT_Ei
	movl	-12(%rbp), %eax
	cltq
	movq	-8(%rbp), %rdx
	addq	$32, %rdx
	movq	%rax, %rsi
	movq	%rdx, %rdi
	call	_ZNSt6vectorImSaImEEixEm
	movq	(%rax), %rax
	movq	-8(%rbp), %rdx
	addq	$8, %rdx
	movq	%rax, %rsi
	movq	%rdx, %rdi
	call	_ZNSt6vectorIS_IdSaIdEESaIS1_EEixEm
	leave
	.cfi_def_cfa 7, 8
	ret
	.cfi_endproc
.LFE3928:
	.size	_ZN7MatricaIdEixEi, .-_ZN7MatricaIdEixEi
	.section	.text._ZNSt6vectorIdSaIdEEixEm,"axG",@progbits,_ZNSt6vectorIdSaIdEEixEm,comdat
	.align 2
	.weak	_ZNSt6vectorIdSaIdEEixEm
	.type	_ZNSt6vectorIdSaIdEEixEm, @function
_ZNSt6vectorIdSaIdEEixEm:
.LFB3929:
	.cfi_startproc
	pushq	%rbp
	.cfi_def_cfa_offset 16
	.cfi_offset 6, -16
	movq	%rsp, %rbp
	.cfi_def_cfa_register 6
	movq	%rdi, -8(%rbp)
	movq	%rsi, -16(%rbp)
	movq	-8(%rbp), %rax
	movq	(%rax), %rax
	movq	-16(%rbp), %rdx
	salq	$3, %rdx
	addq	%rdx, %rax
	popq	%rbp
	.cfi_def_cfa 7, 8
	ret
	.cfi_endproc
.LFE3929:
	.size	_ZNSt6vectorIdSaIdEEixEm, .-_ZNSt6vectorIdSaIdEEixEm
	.section	.text._ZNSt6vectorIS_IdSaIdEESaIS1_EEC2ERKS3_,"axG",@progbits,_ZNSt6vectorIS_IdSaIdEESaIS1_EEC5ERKS3_,comdat
	.align 2
	.weak	_ZNSt6vectorIS_IdSaIdEESaIS1_EEC2ERKS3_
	.type	_ZNSt6vectorIS_IdSaIdEESaIS1_EEC2ERKS3_, @function
_ZNSt6vectorIS_IdSaIdEESaIS1_EEC2ERKS3_:
.LFB3931:
	.cfi_startproc
	.cfi_personality 0x9b,DW.ref.__gxx_personality_v0
	.cfi_lsda 0x1b,.LLSDA3931
	pushq	%rbp
	.cfi_def_cfa_offset 16
	.cfi_offset 6, -16
	movq	%rsp, %rbp
	.cfi_def_cfa_register 6
	pushq	%r13
	pushq	%r12
	pushq	%rbx
	subq	$40, %rsp
	.cfi_offset 13, -24
	.cfi_offset 12, -32
	.cfi_offset 3, -40
	movq	%rdi, -56(%rbp)
	movq	%rsi, -64(%rbp)
	movq	-56(%rbp), %rbx
	movq	-64(%rbp), %rax
	movq	%rax, %rdi
	call	_ZNKSt12_Vector_baseISt6vectorIdSaIdEESaIS2_EE19_M_get_Tp_allocatorEv
	movq	%rax, %rdx
	leaq	-33(%rbp), %rax
	movq	%rdx, %rsi
	movq	%rax, %rdi
.LEHB161:
	call	_ZN9__gnu_cxx14__alloc_traitsISaISt6vectorIdSaIdEEEE17_S_select_on_copyERKS4_
.LEHE161:
	movq	-64(%rbp), %rax
	movq	%rax, %rdi
	call	_ZNKSt6vectorIS_IdSaIdEESaIS1_EE4sizeEv
	movq	%rax, %rcx
	leaq	-33(%rbp), %rax
	movq	%rax, %rdx
	movq	%rcx, %rsi
	movq	%rbx, %rdi
.LEHB162:
	call	_ZNSt12_Vector_baseISt6vectorIdSaIdEESaIS2_EEC2EmRKS3_
.LEHE162:
	leaq	-33(%rbp), %rax
	movq	%rax, %rdi
	call	_ZNSaISt6vectorIdSaIdEEED1Ev
	movq	-56(%rbp), %rax
	movq	%rax, %rdi
	call	_ZNSt12_Vector_baseISt6vectorIdSaIdEESaIS2_EE19_M_get_Tp_allocatorEv
	movq	%rax, %r13
	movq	-56(%rbp), %rax
	movq	(%rax), %rbx
	movq	-64(%rbp), %rax
	movq	%rax, %rdi
	call	_ZNKSt6vectorIS_IdSaIdEESaIS1_EE3endEv
	movq	%rax, %r12
	movq	-64(%rbp), %rax
	movq	%rax, %rdi
	call	_ZNKSt6vectorIS_IdSaIdEESaIS1_EE5beginEv
	movq	%r13, %rcx
	movq	%rbx, %rdx
	movq	%r12, %rsi
	movq	%rax, %rdi
.LEHB163:
	call	_ZSt22__uninitialized_copy_aIN9__gnu_cxx17__normal_iteratorIPKSt6vectorIdSaIdEES2_IS4_SaIS4_EEEEPS4_S4_ET0_T_SC_SB_RSaIT1_E
.LEHE163:
	movq	%rax, %rdx
	movq	-56(%rbp), %rax
	movq	%rdx, 8(%rax)
	jmp	.L467
.L465:
	movq	%rax, %rbx
	leaq	-33(%rbp), %rax
	movq	%rax, %rdi
	call	_ZNSaISt6vectorIdSaIdEEED1Ev
	movq	%rbx, %rax
	movq	%rax, %rdi
.LEHB164:
	call	_Unwind_Resume@PLT
.L466:
	movq	%rax, %rbx
	movq	-56(%rbp), %rax
	movq	%rax, %rdi
	call	_ZNSt12_Vector_baseISt6vectorIdSaIdEESaIS2_EED2Ev
	movq	%rbx, %rax
	movq	%rax, %rdi
	call	_Unwind_Resume@PLT
.LEHE164:
.L467:
	addq	$40, %rsp
	popq	%rbx
	popq	%r12
	popq	%r13
	popq	%rbp
	.cfi_def_cfa 7, 8
	ret
	.cfi_endproc
.LFE3931:
	.section	.gcc_except_table
.LLSDA3931:
	.byte	0xff
	.byte	0xff
	.byte	0x1
	.uleb128 .LLSDACSE3931-.LLSDACSB3931
.LLSDACSB3931:
	.uleb128 .LEHB161-.LFB3931
	.uleb128 .LEHE161-.LEHB161
	.uleb128 0
	.uleb128 0
	.uleb128 .LEHB162-.LFB3931
	.uleb128 .LEHE162-.LEHB162
	.uleb128 .L465-.LFB3931
	.uleb128 0
	.uleb128 .LEHB163-.LFB3931
	.uleb128 .LEHE163-.LEHB163
	.uleb128 .L466-.LFB3931
	.uleb128 0
	.uleb128 .LEHB164-.LFB3931
	.uleb128 .LEHE164-.LEHB164
	.uleb128 0
	.uleb128 0
.LLSDACSE3931:
	.section	.text._ZNSt6vectorIS_IdSaIdEESaIS1_EEC2ERKS3_,"axG",@progbits,_ZNSt6vectorIS_IdSaIdEESaIS1_EEC5ERKS3_,comdat
	.size	_ZNSt6vectorIS_IdSaIdEESaIS1_EEC2ERKS3_, .-_ZNSt6vectorIS_IdSaIdEESaIS1_EEC2ERKS3_
	.weak	_ZNSt6vectorIS_IdSaIdEESaIS1_EEC1ERKS3_
	.set	_ZNSt6vectorIS_IdSaIdEESaIS1_EEC1ERKS3_,_ZNSt6vectorIS_IdSaIdEESaIS1_EEC2ERKS3_
	.section	.text._ZNSt6vectorImSaImEEC2ERKS1_,"axG",@progbits,_ZNSt6vectorImSaImEEC5ERKS1_,comdat
	.align 2
	.weak	_ZNSt6vectorImSaImEEC2ERKS1_
	.type	_ZNSt6vectorImSaImEEC2ERKS1_, @function
_ZNSt6vectorImSaImEEC2ERKS1_:
.LFB3934:
	.cfi_startproc
	.cfi_personality 0x9b,DW.ref.__gxx_personality_v0
	.cfi_lsda 0x1b,.LLSDA3934
	pushq	%rbp
	.cfi_def_cfa_offset 16
	.cfi_offset 6, -16
	movq	%rsp, %rbp
	.cfi_def_cfa_register 6
	pushq	%r13
	pushq	%r12
	pushq	%rbx
	subq	$40, %rsp
	.cfi_offset 13, -24
	.cfi_offset 12, -32
	.cfi_offset 3, -40
	movq	%rdi, -56(%rbp)
	movq	%rsi, -64(%rbp)
	movq	-56(%rbp), %rbx
	movq	-64(%rbp), %rax
	movq	%rax, %rdi
	call	_ZNKSt12_Vector_baseImSaImEE19_M_get_Tp_allocatorEv
	movq	%rax, %rdx
	leaq	-33(%rbp), %rax
	movq	%rdx, %rsi
	movq	%rax, %rdi
.LEHB165:
	call	_ZN9__gnu_cxx14__alloc_traitsISaImEE17_S_select_on_copyERKS1_
.LEHE165:
	movq	-64(%rbp), %rax
	movq	%rax, %rdi
	call	_ZNKSt6vectorImSaImEE4sizeEv
	movq	%rax, %rcx
	leaq	-33(%rbp), %rax
	movq	%rax, %rdx
	movq	%rcx, %rsi
	movq	%rbx, %rdi
.LEHB166:
	call	_ZNSt12_Vector_baseImSaImEEC2EmRKS0_
.LEHE166:
	leaq	-33(%rbp), %rax
	movq	%rax, %rdi
	call	_ZNSaImED1Ev
	movq	-56(%rbp), %rax
	movq	%rax, %rdi
	call	_ZNSt12_Vector_baseImSaImEE19_M_get_Tp_allocatorEv
	movq	%rax, %r13
	movq	-56(%rbp), %rax
	movq	(%rax), %rbx
	movq	-64(%rbp), %rax
	movq	%rax, %rdi
	call	_ZNKSt6vectorImSaImEE3endEv
	movq	%rax, %r12
	movq	-64(%rbp), %rax
	movq	%rax, %rdi
	call	_ZNKSt6vectorImSaImEE5beginEv
	movq	%r13, %rcx
	movq	%rbx, %rdx
	movq	%r12, %rsi
	movq	%rax, %rdi
.LEHB167:
	call	_ZSt22__uninitialized_copy_aIN9__gnu_cxx17__normal_iteratorIPKmSt6vectorImSaImEEEEPmmET0_T_SA_S9_RSaIT1_E
.LEHE167:
	movq	%rax, %rdx
	movq	-56(%rbp), %rax
	movq	%rdx, 8(%rax)
	jmp	.L473
.L471:
	movq	%rax, %rbx
	leaq	-33(%rbp), %rax
	movq	%rax, %rdi
	call	_ZNSaImED1Ev
	movq	%rbx, %rax
	movq	%rax, %rdi
.LEHB168:
	call	_Unwind_Resume@PLT
.L472:
	movq	%rax, %rbx
	movq	-56(%rbp), %rax
	movq	%rax, %rdi
	call	_ZNSt12_Vector_baseImSaImEED2Ev
	movq	%rbx, %rax
	movq	%rax, %rdi
	call	_Unwind_Resume@PLT
.LEHE168:
.L473:
	addq	$40, %rsp
	popq	%rbx
	popq	%r12
	popq	%r13
	popq	%rbp
	.cfi_def_cfa 7, 8
	ret
	.cfi_endproc
.LFE3934:
	.section	.gcc_except_table
.LLSDA3934:
	.byte	0xff
	.byte	0xff
	.byte	0x1
	.uleb128 .LLSDACSE3934-.LLSDACSB3934
.LLSDACSB3934:
	.uleb128 .LEHB165-.LFB3934
	.uleb128 .LEHE165-.LEHB165
	.uleb128 0
	.uleb128 0
	.uleb128 .LEHB166-.LFB3934
	.uleb128 .LEHE166-.LEHB166
	.uleb128 .L471-.LFB3934
	.uleb128 0
	.uleb128 .LEHB167-.LFB3934
	.uleb128 .LEHE167-.LEHB167
	.uleb128 .L472-.LFB3934
	.uleb128 0
	.uleb128 .LEHB168-.LFB3934
	.uleb128 .LEHE168-.LEHB168
	.uleb128 0
	.uleb128 0
.LLSDACSE3934:
	.section	.text._ZNSt6vectorImSaImEEC2ERKS1_,"axG",@progbits,_ZNSt6vectorImSaImEEC5ERKS1_,comdat
	.size	_ZNSt6vectorImSaImEEC2ERKS1_, .-_ZNSt6vectorImSaImEEC2ERKS1_
	.weak	_ZNSt6vectorImSaImEEC1ERKS1_
	.set	_ZNSt6vectorImSaImEEC1ERKS1_,_ZNSt6vectorImSaImEEC2ERKS1_
	.section	.text._ZN7MatricaIdEC2ERKS0_,"axG",@progbits,_ZN7MatricaIdEC5ERKS0_,comdat
	.align 2
	.weak	_ZN7MatricaIdEC2ERKS0_
	.type	_ZN7MatricaIdEC2ERKS0_, @function
_ZN7MatricaIdEC2ERKS0_:
.LFB3937:
	.cfi_startproc
	.cfi_personality 0x9b,DW.ref.__gxx_personality_v0
	.cfi_lsda 0x1b,.LLSDA3937
	pushq	%rbp
	.cfi_def_cfa_offset 16
	.cfi_offset 6, -16
	movq	%rsp, %rbp
	.cfi_def_cfa_register 6
	pushq	%rbx
	subq	$24, %rsp
	.cfi_offset 3, -24
	movq	%rdi, -24(%rbp)
	movq	%rsi, -32(%rbp)
	leaq	16+_ZTV7MatricaIdE(%rip), %rdx
	movq	-24(%rbp), %rax
	movq	%rdx, (%rax)
	movq	-24(%rbp), %rax
	addq	$8, %rax
	movq	-32(%rbp), %rdx
	addq	$8, %rdx
	movq	%rdx, %rsi
	movq	%rax, %rdi
.LEHB169:
	call	_ZNSt6vectorIS_IdSaIdEESaIS1_EEC1ERKS3_
.LEHE169:
	movq	-24(%rbp), %rax
	addq	$32, %rax
	movq	-32(%rbp), %rdx
	addq	$32, %rdx
	movq	%rdx, %rsi
	movq	%rax, %rdi
.LEHB170:
	call	_ZNSt6vectorImSaImEEC1ERKS1_
.LEHE170:
	jmp	.L477
.L476:
	movq	%rax, %rbx
	movq	-24(%rbp), %rax
	addq	$8, %rax
	movq	%rax, %rdi
	call	_ZNSt6vectorIS_IdSaIdEESaIS1_EED1Ev
	movq	%rbx, %rax
	movq	%rax, %rdi
.LEHB171:
	call	_Unwind_Resume@PLT
.LEHE171:
.L477:
	addq	$24, %rsp
	popq	%rbx
	popq	%rbp
	.cfi_def_cfa 7, 8
	ret
	.cfi_endproc
.LFE3937:
	.section	.gcc_except_table
.LLSDA3937:
	.byte	0xff
	.byte	0xff
	.byte	0x1
	.uleb128 .LLSDACSE3937-.LLSDACSB3937
.LLSDACSB3937:
	.uleb128 .LEHB169-.LFB3937
	.uleb128 .LEHE169-.LEHB169
	.uleb128 0
	.uleb128 0
	.uleb128 .LEHB170-.LFB3937
	.uleb128 .LEHE170-.LEHB170
	.uleb128 .L476-.LFB3937
	.uleb128 0
	.uleb128 .LEHB171-.LFB3937
	.uleb128 .LEHE171-.LEHB171
	.uleb128 0
	.uleb128 0
.LLSDACSE3937:
	.section	.text._ZN7MatricaIdEC2ERKS0_,"axG",@progbits,_ZN7MatricaIdEC5ERKS0_,comdat
	.size	_ZN7MatricaIdEC2ERKS0_, .-_ZN7MatricaIdEC2ERKS0_
	.weak	_ZN7MatricaIdEC1ERKS0_
	.set	_ZN7MatricaIdEC1ERKS0_,_ZN7MatricaIdEC2ERKS0_
	.section	.text._ZN7MatricaIdEmLIiEERS0_T_,"axG",@progbits,_ZN7MatricaIdEmLIiEERS0_T_,comdat
	.align 2
	.weak	_ZN7MatricaIdEmLIiEERS0_T_
	.type	_ZN7MatricaIdEmLIiEERS0_T_, @function
_ZN7MatricaIdEmLIiEERS0_T_:
.LFB3939:
	.cfi_startproc
	pushq	%rbp
	.cfi_def_cfa_offset 16
	.cfi_offset 6, -16
	movq	%rsp, %rbp
	.cfi_def_cfa_register 6
	subq	$80, %rsp
	movq	%rdi, -72(%rbp)
	movl	%esi, -76(%rbp)
	movq	-72(%rbp), %rax
	addq	$8, %rax
	movq	%rax, -8(%rbp)
	movq	-8(%rbp), %rax
	movq	%rax, %rdi
	call	_ZNSt6vectorIS_IdSaIdEESaIS1_EE5beginEv
	movq	%rax, -40(%rbp)
	movq	-8(%rbp), %rax
	movq	%rax, %rdi
	call	_ZNSt6vectorIS_IdSaIdEESaIS1_EE3endEv
	movq	%rax, -48(%rbp)
.L482:
	leaq	-48(%rbp), %rdx
	leaq	-40(%rbp), %rax
	movq	%rdx, %rsi
	movq	%rax, %rdi
	call	_ZN9__gnu_cxxneIPSt6vectorIdSaIdEES1_IS3_SaIS3_EEEEbRKNS_17__normal_iteratorIT_T0_EESC_
	testb	%al, %al
	je	.L479
	leaq	-40(%rbp), %rax
	movq	%rax, %rdi
	call	_ZNK9__gnu_cxx17__normal_iteratorIPSt6vectorIdSaIdEES1_IS3_SaIS3_EEEdeEv
	movq	%rax, -16(%rbp)
	movq	-16(%rbp), %rax
	movq	%rax, -24(%rbp)
	movq	-24(%rbp), %rax
	movq	%rax, %rdi
	call	_ZNSt6vectorIdSaIdEE5beginEv
	movq	%rax, -56(%rbp)
	movq	-24(%rbp), %rax
	movq	%rax, %rdi
	call	_ZNSt6vectorIdSaIdEE3endEv
	movq	%rax, -64(%rbp)
.L481:
	leaq	-64(%rbp), %rdx
	leaq	-56(%rbp), %rax
	movq	%rdx, %rsi
	movq	%rax, %rdi
	call	_ZN9__gnu_cxxneIPdSt6vectorIdSaIdEEEEbRKNS_17__normal_iteratorIT_T0_EESA_
	testb	%al, %al
	je	.L480
	leaq	-56(%rbp), %rax
	movq	%rax, %rdi
	call	_ZNK9__gnu_cxx17__normal_iteratorIPdSt6vectorIdSaIdEEEdeEv
	movq	%rax, -32(%rbp)
	movq	-32(%rbp), %rax
	movsd	(%rax), %xmm1
	cvtsi2sd	-76(%rbp), %xmm0
	mulsd	%xmm1, %xmm0
	movq	-32(%rbp), %rax
	movsd	%xmm0, (%rax)
	leaq	-56(%rbp), %rax
	movq	%rax, %rdi
	call	_ZN9__gnu_cxx17__normal_iteratorIPdSt6vectorIdSaIdEEEppEv
	jmp	.L481
.L480:
	leaq	-40(%rbp), %rax
	movq	%rax, %rdi
	call	_ZN9__gnu_cxx17__normal_iteratorIPSt6vectorIdSaIdEES1_IS3_SaIS3_EEEppEv
	jmp	.L482
.L479:
	movq	-72(%rbp), %rax
	leave
	.cfi_def_cfa 7, 8
	ret
	.cfi_endproc
.LFE3939:
	.size	_ZN7MatricaIdEmLIiEERS0_T_, .-_ZN7MatricaIdEmLIiEERS0_T_
	.section	.text._ZN7MatricaIdEmLIdEERS0_T_,"axG",@progbits,_ZN7MatricaIdEmLIdEERS0_T_,comdat
	.align 2
	.weak	_ZN7MatricaIdEmLIdEERS0_T_
	.type	_ZN7MatricaIdEmLIdEERS0_T_, @function
_ZN7MatricaIdEmLIdEERS0_T_:
.LFB3940:
	.cfi_startproc
	pushq	%rbp
	.cfi_def_cfa_offset 16
	.cfi_offset 6, -16
	movq	%rsp, %rbp
	.cfi_def_cfa_register 6
	subq	$80, %rsp
	movq	%rdi, -72(%rbp)
	movsd	%xmm0, -80(%rbp)
	movq	-72(%rbp), %rax
	addq	$8, %rax
	movq	%rax, -8(%rbp)
	movq	-8(%rbp), %rax
	movq	%rax, %rdi
	call	_ZNSt6vectorIS_IdSaIdEESaIS1_EE5beginEv
	movq	%rax, -40(%rbp)
	movq	-8(%rbp), %rax
	movq	%rax, %rdi
	call	_ZNSt6vectorIS_IdSaIdEESaIS1_EE3endEv
	movq	%rax, -48(%rbp)
.L488:
	leaq	-48(%rbp), %rdx
	leaq	-40(%rbp), %rax
	movq	%rdx, %rsi
	movq	%rax, %rdi
	call	_ZN9__gnu_cxxneIPSt6vectorIdSaIdEES1_IS3_SaIS3_EEEEbRKNS_17__normal_iteratorIT_T0_EESC_
	testb	%al, %al
	je	.L485
	leaq	-40(%rbp), %rax
	movq	%rax, %rdi
	call	_ZNK9__gnu_cxx17__normal_iteratorIPSt6vectorIdSaIdEES1_IS3_SaIS3_EEEdeEv
	movq	%rax, -16(%rbp)
	movq	-16(%rbp), %rax
	movq	%rax, -24(%rbp)
	movq	-24(%rbp), %rax
	movq	%rax, %rdi
	call	_ZNSt6vectorIdSaIdEE5beginEv
	movq	%rax, -56(%rbp)
	movq	-24(%rbp), %rax
	movq	%rax, %rdi
	call	_ZNSt6vectorIdSaIdEE3endEv
	movq	%rax, -64(%rbp)
.L487:
	leaq	-64(%rbp), %rdx
	leaq	-56(%rbp), %rax
	movq	%rdx, %rsi
	movq	%rax, %rdi
	call	_ZN9__gnu_cxxneIPdSt6vectorIdSaIdEEEEbRKNS_17__normal_iteratorIT_T0_EESA_
	testb	%al, %al
	je	.L486
	leaq	-56(%rbp), %rax
	movq	%rax, %rdi
	call	_ZNK9__gnu_cxx17__normal_iteratorIPdSt6vectorIdSaIdEEEdeEv
	movq	%rax, -32(%rbp)
	movq	-32(%rbp), %rax
	movsd	(%rax), %xmm0
	mulsd	-80(%rbp), %xmm0
	movq	-32(%rbp), %rax
	movsd	%xmm0, (%rax)
	leaq	-56(%rbp), %rax
	movq	%rax, %rdi
	call	_ZN9__gnu_cxx17__normal_iteratorIPdSt6vectorIdSaIdEEEppEv
	jmp	.L487
.L486:
	leaq	-40(%rbp), %rax
	movq	%rax, %rdi
	call	_ZN9__gnu_cxx17__normal_iteratorIPSt6vectorIdSaIdEES1_IS3_SaIS3_EEEppEv
	jmp	.L488
.L485:
	movq	-72(%rbp), %rax
	leave
	.cfi_def_cfa 7, 8
	ret
	.cfi_endproc
.LFE3940:
	.size	_ZN7MatricaIdEmLIdEERS0_T_, .-_ZN7MatricaIdEmLIdEERS0_T_
	.section	.text._ZStneIiiEbRKSt4pairIT_T0_ES5_,"axG",@progbits,_ZStneIiiEbRKSt4pairIT_T0_ES5_,comdat
	.weak	_ZStneIiiEbRKSt4pairIT_T0_ES5_
	.type	_ZStneIiiEbRKSt4pairIT_T0_ES5_, @function
_ZStneIiiEbRKSt4pairIT_T0_ES5_:
.LFB3941:
	.cfi_startproc
	pushq	%rbp
	.cfi_def_cfa_offset 16
	.cfi_offset 6, -16
	movq	%rsp, %rbp
	.cfi_def_cfa_register 6
	subq	$16, %rsp
	movq	%rdi, -8(%rbp)
	movq	%rsi, -16(%rbp)
	movq	-16(%rbp), %rdx
	movq	-8(%rbp), %rax
	movq	%rdx, %rsi
	movq	%rax, %rdi
	call	_ZSteqIiiEbRKSt4pairIT_T0_ES5_
	xorl	$1, %eax
	leave
	.cfi_def_cfa 7, 8
	ret
	.cfi_endproc
.LFE3941:
	.size	_ZStneIiiEbRKSt4pairIT_T0_ES5_, .-_ZStneIiiEbRKSt4pairIT_T0_ES5_
	.section	.text._Z8ulancaneIdEb7MatricaIT_ES2_,"axG",@progbits,_Z8ulancaneIdEb7MatricaIT_ES2_,comdat
	.weak	_Z8ulancaneIdEb7MatricaIT_ES2_
	.type	_Z8ulancaneIdEb7MatricaIT_ES2_, @function
_Z8ulancaneIdEb7MatricaIT_ES2_:
.LFB3942:
	.cfi_startproc
	pushq	%rbp
	.cfi_def_cfa_offset 16
	.cfi_offset 6, -16
	movq	%rsp, %rbp
	.cfi_def_cfa_register 6
	pushq	%rbx
	subq	$24, %rsp
	.cfi_offset 3, -24
	movq	%rdi, -24(%rbp)
	movq	%rsi, -32(%rbp)
	movq	-24(%rbp), %rax
	movq	%rax, %rdi
	call	_ZNK7MatricaIdE3dimEv
	sarq	$32, %rax
	movl	%eax, %ebx
	movq	-32(%rbp), %rax
	movq	%rax, %rdi
	call	_ZNK7MatricaIdE3dimEv
	cmpl	%eax, %ebx
	sete	%al
	addq	$24, %rsp
	popq	%rbx
	popq	%rbp
	.cfi_def_cfa 7, 8
	ret
	.cfi_endproc
.LFE3942:
	.size	_Z8ulancaneIdEb7MatricaIT_ES2_, .-_Z8ulancaneIdEb7MatricaIT_ES2_
	.section	.text._ZNSt6vectorIS_IdSaIdEESaIS1_EE5beginEv,"axG",@progbits,_ZNSt6vectorIS_IdSaIdEESaIS1_EE5beginEv,comdat
	.align 2
	.weak	_ZNSt6vectorIS_IdSaIdEESaIS1_EE5beginEv
	.type	_ZNSt6vectorIS_IdSaIdEESaIS1_EE5beginEv, @function
_ZNSt6vectorIS_IdSaIdEESaIS1_EE5beginEv:
.LFB3943:
	.cfi_startproc
	pushq	%rbp
	.cfi_def_cfa_offset 16
	.cfi_offset 6, -16
	movq	%rsp, %rbp
	.cfi_def_cfa_register 6
	subq	$32, %rsp
	movq	%rdi, -24(%rbp)
	movq	-24(%rbp), %rdx
	leaq	-8(%rbp), %rax
	movq	%rdx, %rsi
	movq	%rax, %rdi
	call	_ZN9__gnu_cxx17__normal_iteratorIPSt6vectorIdSaIdEES1_IS3_SaIS3_EEEC1ERKS4_
	movq	-8(%rbp), %rax
	leave
	.cfi_def_cfa 7, 8
	ret
	.cfi_endproc
.LFE3943:
	.size	_ZNSt6vectorIS_IdSaIdEESaIS1_EE5beginEv, .-_ZNSt6vectorIS_IdSaIdEESaIS1_EE5beginEv
	.section	.text._ZNSt6vectorIS_IdSaIdEESaIS1_EE3endEv,"axG",@progbits,_ZNSt6vectorIS_IdSaIdEESaIS1_EE3endEv,comdat
	.align 2
	.weak	_ZNSt6vectorIS_IdSaIdEESaIS1_EE3endEv
	.type	_ZNSt6vectorIS_IdSaIdEESaIS1_EE3endEv, @function
_ZNSt6vectorIS_IdSaIdEESaIS1_EE3endEv:
.LFB3944:
	.cfi_startproc
	pushq	%rbp
	.cfi_def_cfa_offset 16
	.cfi_offset 6, -16
	movq	%rsp, %rbp
	.cfi_def_cfa_register 6
	subq	$32, %rsp
	movq	%rdi, -24(%rbp)
	movq	-24(%rbp), %rax
	leaq	8(%rax), %rdx
	leaq	-8(%rbp), %rax
	movq	%rdx, %rsi
	movq	%rax, %rdi
	call	_ZN9__gnu_cxx17__normal_iteratorIPSt6vectorIdSaIdEES1_IS3_SaIS3_EEEC1ERKS4_
	movq	-8(%rbp), %rax
	leave
	.cfi_def_cfa 7, 8
	ret
	.cfi_endproc
.LFE3944:
	.size	_ZNSt6vectorIS_IdSaIdEESaIS1_EE3endEv, .-_ZNSt6vectorIS_IdSaIdEESaIS1_EE3endEv
	.section	.text._ZN9__gnu_cxxneIPSt6vectorIdSaIdEES1_IS3_SaIS3_EEEEbRKNS_17__normal_iteratorIT_T0_EESC_,"axG",@progbits,_ZN9__gnu_cxxneIPSt6vectorIdSaIdEES1_IS3_SaIS3_EEEEbRKNS_17__normal_iteratorIT_T0_EESC_,comdat
	.weak	_ZN9__gnu_cxxneIPSt6vectorIdSaIdEES1_IS3_SaIS3_EEEEbRKNS_17__normal_iteratorIT_T0_EESC_
	.type	_ZN9__gnu_cxxneIPSt6vectorIdSaIdEES1_IS3_SaIS3_EEEEbRKNS_17__normal_iteratorIT_T0_EESC_, @function
_ZN9__gnu_cxxneIPSt6vectorIdSaIdEES1_IS3_SaIS3_EEEEbRKNS_17__normal_iteratorIT_T0_EESC_:
.LFB3945:
	.cfi_startproc
	pushq	%rbp
	.cfi_def_cfa_offset 16
	.cfi_offset 6, -16
	movq	%rsp, %rbp
	.cfi_def_cfa_register 6
	pushq	%rbx
	subq	$24, %rsp
	.cfi_offset 3, -24
	movq	%rdi, -24(%rbp)
	movq	%rsi, -32(%rbp)
	movq	-24(%rbp), %rax
	movq	%rax, %rdi
	call	_ZNK9__gnu_cxx17__normal_iteratorIPSt6vectorIdSaIdEES1_IS3_SaIS3_EEE4baseEv
	movq	(%rax), %rbx
	movq	-32(%rbp), %rax
	movq	%rax, %rdi
	call	_ZNK9__gnu_cxx17__normal_iteratorIPSt6vectorIdSaIdEES1_IS3_SaIS3_EEE4baseEv
	movq	(%rax), %rax
	cmpq	%rax, %rbx
	setne	%al
	addq	$24, %rsp
	popq	%rbx
	popq	%rbp
	.cfi_def_cfa 7, 8
	ret
	.cfi_endproc
.LFE3945:
	.size	_ZN9__gnu_cxxneIPSt6vectorIdSaIdEES1_IS3_SaIS3_EEEEbRKNS_17__normal_iteratorIT_T0_EESC_, .-_ZN9__gnu_cxxneIPSt6vectorIdSaIdEES1_IS3_SaIS3_EEEEbRKNS_17__normal_iteratorIT_T0_EESC_
	.section	.text._ZN9__gnu_cxx17__normal_iteratorIPSt6vectorIdSaIdEES1_IS3_SaIS3_EEEppEv,"axG",@progbits,_ZN9__gnu_cxx17__normal_iteratorIPSt6vectorIdSaIdEES1_IS3_SaIS3_EEEppEv,comdat
	.align 2
	.weak	_ZN9__gnu_cxx17__normal_iteratorIPSt6vectorIdSaIdEES1_IS3_SaIS3_EEEppEv
	.type	_ZN9__gnu_cxx17__normal_iteratorIPSt6vectorIdSaIdEES1_IS3_SaIS3_EEEppEv, @function
_ZN9__gnu_cxx17__normal_iteratorIPSt6vectorIdSaIdEES1_IS3_SaIS3_EEEppEv:
.LFB3946:
	.cfi_startproc
	pushq	%rbp
	.cfi_def_cfa_offset 16
	.cfi_offset 6, -16
	movq	%rsp, %rbp
	.cfi_def_cfa_register 6
	movq	%rdi, -8(%rbp)
	movq	-8(%rbp), %rax
	movq	(%rax), %rax
	leaq	24(%rax), %rdx
	movq	-8(%rbp), %rax
	movq	%rdx, (%rax)
	movq	-8(%rbp), %rax
	popq	%rbp
	.cfi_def_cfa 7, 8
	ret
	.cfi_endproc
.LFE3946:
	.size	_ZN9__gnu_cxx17__normal_iteratorIPSt6vectorIdSaIdEES1_IS3_SaIS3_EEEppEv, .-_ZN9__gnu_cxx17__normal_iteratorIPSt6vectorIdSaIdEES1_IS3_SaIS3_EEEppEv
	.section	.text._ZNK9__gnu_cxx17__normal_iteratorIPSt6vectorIdSaIdEES1_IS3_SaIS3_EEEdeEv,"axG",@progbits,_ZNK9__gnu_cxx17__normal_iteratorIPSt6vectorIdSaIdEES1_IS3_SaIS3_EEEdeEv,comdat
	.align 2
	.weak	_ZNK9__gnu_cxx17__normal_iteratorIPSt6vectorIdSaIdEES1_IS3_SaIS3_EEEdeEv
	.type	_ZNK9__gnu_cxx17__normal_iteratorIPSt6vectorIdSaIdEES1_IS3_SaIS3_EEEdeEv, @function
_ZNK9__gnu_cxx17__normal_iteratorIPSt6vectorIdSaIdEES1_IS3_SaIS3_EEEdeEv:
.LFB3947:
	.cfi_startproc
	pushq	%rbp
	.cfi_def_cfa_offset 16
	.cfi_offset 6, -16
	movq	%rsp, %rbp
	.cfi_def_cfa_register 6
	movq	%rdi, -8(%rbp)
	movq	-8(%rbp), %rax
	movq	(%rax), %rax
	popq	%rbp
	.cfi_def_cfa 7, 8
	ret
	.cfi_endproc
.LFE3947:
	.size	_ZNK9__gnu_cxx17__normal_iteratorIPSt6vectorIdSaIdEES1_IS3_SaIS3_EEEdeEv, .-_ZNK9__gnu_cxx17__normal_iteratorIPSt6vectorIdSaIdEES1_IS3_SaIS3_EEEdeEv
	.section	.text._ZNSt6vectorIdSaIdEE5beginEv,"axG",@progbits,_ZNSt6vectorIdSaIdEE5beginEv,comdat
	.align 2
	.weak	_ZNSt6vectorIdSaIdEE5beginEv
	.type	_ZNSt6vectorIdSaIdEE5beginEv, @function
_ZNSt6vectorIdSaIdEE5beginEv:
.LFB3948:
	.cfi_startproc
	pushq	%rbp
	.cfi_def_cfa_offset 16
	.cfi_offset 6, -16
	movq	%rsp, %rbp
	.cfi_def_cfa_register 6
	subq	$32, %rsp
	movq	%rdi, -24(%rbp)
	movq	-24(%rbp), %rdx
	leaq	-8(%rbp), %rax
	movq	%rdx, %rsi
	movq	%rax, %rdi
	call	_ZN9__gnu_cxx17__normal_iteratorIPdSt6vectorIdSaIdEEEC1ERKS1_
	movq	-8(%rbp), %rax
	leave
	.cfi_def_cfa 7, 8
	ret
	.cfi_endproc
.LFE3948:
	.size	_ZNSt6vectorIdSaIdEE5beginEv, .-_ZNSt6vectorIdSaIdEE5beginEv
	.section	.text._ZNSt6vectorIdSaIdEE3endEv,"axG",@progbits,_ZNSt6vectorIdSaIdEE3endEv,comdat
	.align 2
	.weak	_ZNSt6vectorIdSaIdEE3endEv
	.type	_ZNSt6vectorIdSaIdEE3endEv, @function
_ZNSt6vectorIdSaIdEE3endEv:
.LFB3949:
	.cfi_startproc
	pushq	%rbp
	.cfi_def_cfa_offset 16
	.cfi_offset 6, -16
	movq	%rsp, %rbp
	.cfi_def_cfa_register 6
	subq	$32, %rsp
	movq	%rdi, -24(%rbp)
	movq	-24(%rbp), %rax
	leaq	8(%rax), %rdx
	leaq	-8(%rbp), %rax
	movq	%rdx, %rsi
	movq	%rax, %rdi
	call	_ZN9__gnu_cxx17__normal_iteratorIPdSt6vectorIdSaIdEEEC1ERKS1_
	movq	-8(%rbp), %rax
	leave
	.cfi_def_cfa 7, 8
	ret
	.cfi_endproc
.LFE3949:
	.size	_ZNSt6vectorIdSaIdEE3endEv, .-_ZNSt6vectorIdSaIdEE3endEv
	.section	.text._ZN9__gnu_cxxneIPdSt6vectorIdSaIdEEEEbRKNS_17__normal_iteratorIT_T0_EESA_,"axG",@progbits,_ZN9__gnu_cxxneIPdSt6vectorIdSaIdEEEEbRKNS_17__normal_iteratorIT_T0_EESA_,comdat
	.weak	_ZN9__gnu_cxxneIPdSt6vectorIdSaIdEEEEbRKNS_17__normal_iteratorIT_T0_EESA_
	.type	_ZN9__gnu_cxxneIPdSt6vectorIdSaIdEEEEbRKNS_17__normal_iteratorIT_T0_EESA_, @function
_ZN9__gnu_cxxneIPdSt6vectorIdSaIdEEEEbRKNS_17__normal_iteratorIT_T0_EESA_:
.LFB3950:
	.cfi_startproc
	pushq	%rbp
	.cfi_def_cfa_offset 16
	.cfi_offset 6, -16
	movq	%rsp, %rbp
	.cfi_def_cfa_register 6
	pushq	%rbx
	subq	$24, %rsp
	.cfi_offset 3, -24
	movq	%rdi, -24(%rbp)
	movq	%rsi, -32(%rbp)
	movq	-24(%rbp), %rax
	movq	%rax, %rdi
	call	_ZNK9__gnu_cxx17__normal_iteratorIPdSt6vectorIdSaIdEEE4baseEv
	movq	(%rax), %rbx
	movq	-32(%rbp), %rax
	movq	%rax, %rdi
	call	_ZNK9__gnu_cxx17__normal_iteratorIPdSt6vectorIdSaIdEEE4baseEv
	movq	(%rax), %rax
	cmpq	%rax, %rbx
	setne	%al
	addq	$24, %rsp
	popq	%rbx
	popq	%rbp
	.cfi_def_cfa 7, 8
	ret
	.cfi_endproc
.LFE3950:
	.size	_ZN9__gnu_cxxneIPdSt6vectorIdSaIdEEEEbRKNS_17__normal_iteratorIT_T0_EESA_, .-_ZN9__gnu_cxxneIPdSt6vectorIdSaIdEEEEbRKNS_17__normal_iteratorIT_T0_EESA_
	.section	.text._ZN9__gnu_cxx17__normal_iteratorIPdSt6vectorIdSaIdEEEppEv,"axG",@progbits,_ZN9__gnu_cxx17__normal_iteratorIPdSt6vectorIdSaIdEEEppEv,comdat
	.align 2
	.weak	_ZN9__gnu_cxx17__normal_iteratorIPdSt6vectorIdSaIdEEEppEv
	.type	_ZN9__gnu_cxx17__normal_iteratorIPdSt6vectorIdSaIdEEEppEv, @function
_ZN9__gnu_cxx17__normal_iteratorIPdSt6vectorIdSaIdEEEppEv:
.LFB3951:
	.cfi_startproc
	pushq	%rbp
	.cfi_def_cfa_offset 16
	.cfi_offset 6, -16
	movq	%rsp, %rbp
	.cfi_def_cfa_register 6
	movq	%rdi, -8(%rbp)
	movq	-8(%rbp), %rax
	movq	(%rax), %rax
	leaq	8(%rax), %rdx
	movq	-8(%rbp), %rax
	movq	%rdx, (%rax)
	movq	-8(%rbp), %rax
	popq	%rbp
	.cfi_def_cfa 7, 8
	ret
	.cfi_endproc
.LFE3951:
	.size	_ZN9__gnu_cxx17__normal_iteratorIPdSt6vectorIdSaIdEEEppEv, .-_ZN9__gnu_cxx17__normal_iteratorIPdSt6vectorIdSaIdEEEppEv
	.section	.text._ZNK9__gnu_cxx17__normal_iteratorIPdSt6vectorIdSaIdEEEdeEv,"axG",@progbits,_ZNK9__gnu_cxx17__normal_iteratorIPdSt6vectorIdSaIdEEEdeEv,comdat
	.align 2
	.weak	_ZNK9__gnu_cxx17__normal_iteratorIPdSt6vectorIdSaIdEEEdeEv
	.type	_ZNK9__gnu_cxx17__normal_iteratorIPdSt6vectorIdSaIdEEEdeEv, @function
_ZNK9__gnu_cxx17__normal_iteratorIPdSt6vectorIdSaIdEEEdeEv:
.LFB3952:
	.cfi_startproc
	pushq	%rbp
	.cfi_def_cfa_offset 16
	.cfi_offset 6, -16
	movq	%rsp, %rbp
	.cfi_def_cfa_register 6
	movq	%rdi, -8(%rbp)
	movq	-8(%rbp), %rax
	movq	(%rax), %rax
	popq	%rbp
	.cfi_def_cfa 7, 8
	ret
	.cfi_endproc
.LFE3952:
	.size	_ZNK9__gnu_cxx17__normal_iteratorIPdSt6vectorIdSaIdEEEdeEv, .-_ZNK9__gnu_cxx17__normal_iteratorIPdSt6vectorIdSaIdEEEdeEv
	.section	.rodata
.LC37:
	.string	"Matrice nisu istih dimenzija!"
	.section	.text._ZN7MatricaIdEpLERKS0_,"axG",@progbits,_ZN7MatricaIdEpLERKS0_,comdat
	.align 2
	.weak	_ZN7MatricaIdEpLERKS0_
	.type	_ZN7MatricaIdEpLERKS0_, @function
_ZN7MatricaIdEpLERKS0_:
.LFB3953:
	.cfi_startproc
	.cfi_personality 0x9b,DW.ref.__gxx_personality_v0
	.cfi_lsda 0x1b,.LLSDA3953
	pushq	%rbp
	.cfi_def_cfa_offset 16
	.cfi_offset 6, -16
	movq	%rsp, %rbp
	.cfi_def_cfa_register 6
	pushq	%r12
	pushq	%rbx
	subq	$64, %rsp
	.cfi_offset 12, -24
	.cfi_offset 3, -32
	movq	%rdi, -56(%rbp)
	movq	%rsi, -64(%rbp)
	movq	-56(%rbp), %rax
	movq	%rax, %rdi
.LEHB172:
	call	_ZNK7MatricaIdE3dimEv
	movq	%rax, -40(%rbp)
	movq	-64(%rbp), %rax
	movq	%rax, %rdi
	call	_ZNK7MatricaIdE3dimEv
.LEHE172:
	movq	%rax, -32(%rbp)
	leaq	-32(%rbp), %rdx
	leaq	-40(%rbp), %rax
	movq	%rdx, %rsi
	movq	%rax, %rdi
	call	_ZStneIiiEbRKSt4pairIT_T0_ES5_
	testb	%al, %al
	je	.L515
	movl	$16, %edi
	call	__cxa_allocate_exception@PLT
	movq	%rax, %rbx
	leaq	.LC37(%rip), %rsi
	movq	%rbx, %rdi
.LEHB173:
	call	_ZNSt16invalid_argumentC1EPKc@PLT
.LEHE173:
	movq	_ZNSt16invalid_argumentD1Ev@GOTPCREL(%rip), %rax
	movq	%rax, %rdx
	leaq	_ZTISt16invalid_argument(%rip), %rsi
	movq	%rbx, %rdi
.LEHB174:
	call	__cxa_throw@PLT
.L515:
	movl	$0, -20(%rbp)
.L519:
	movl	-40(%rbp), %eax
	cmpl	%eax, -20(%rbp)
	jge	.L516
	movl	$0, -24(%rbp)
.L518:
	movl	-36(%rbp), %eax
	cmpl	%eax, -24(%rbp)
	jge	.L517
	movl	-24(%rbp), %eax
	movslq	%eax, %rbx
	movl	-20(%rbp), %edx
	movq	-64(%rbp), %rax
	movl	%edx, %esi
	movq	%rax, %rdi
	call	_ZNK7MatricaIdEixEi
	movq	%rbx, %rsi
	movq	%rax, %rdi
	call	_ZNKSt6vectorIdSaIdEEixEm
	movsd	(%rax), %xmm1
	movsd	%xmm1, -72(%rbp)
	movl	-24(%rbp), %eax
	movslq	%eax, %rbx
	movl	-20(%rbp), %edx
	movq	-56(%rbp), %rax
	movl	%edx, %esi
	movq	%rax, %rdi
	call	_ZN7MatricaIdEixEi
	movq	%rbx, %rsi
	movq	%rax, %rdi
	call	_ZNSt6vectorIdSaIdEEixEm
	movsd	(%rax), %xmm0
	addsd	-72(%rbp), %xmm0
	movsd	%xmm0, (%rax)
	leaq	.LC20(%rip), %rsi
	leaq	_ZSt4cout(%rip), %rdi
	call	_ZStlsISt11char_traitsIcEERSt13basic_ostreamIcT_ES5_PKc@PLT
	movq	%rax, %rbx
	movq	-56(%rbp), %rax
	movq	%rax, %rdi
	call	_ZNK7MatricaIdE3dimEv
	movl	%eax, %esi
	movq	%rbx, %rdi
	call	_ZNSolsEi@PLT
	leaq	.LC21(%rip), %rsi
	movq	%rax, %rdi
	call	_ZStlsISt11char_traitsIcEERSt13basic_ostreamIcT_ES5_PKc@PLT
	movq	%rax, %rbx
	movq	-56(%rbp), %rax
	movq	%rax, %rdi
	call	_ZNK7MatricaIdE3dimEv
	sarq	$32, %rax
	movl	%eax, %esi
	movq	%rbx, %rdi
	call	_ZNSolsEi@PLT
	leaq	.LC22(%rip), %rsi
	movq	%rax, %rdi
	call	_ZStlsISt11char_traitsIcEERSt13basic_ostreamIcT_ES5_PKc@PLT
	movq	%rax, %rdx
	movq	_ZSt4endlIcSt11char_traitsIcEERSt13basic_ostreamIT_T0_ES6_@GOTPCREL(%rip), %rax
	movq	%rax, %rsi
	movq	%rdx, %rdi
	call	_ZNSolsEPFRSoS_E@PLT
	addl	$1, -24(%rbp)
	jmp	.L518
.L517:
	addl	$1, -20(%rbp)
	jmp	.L519
.L516:
	leaq	.LC20(%rip), %rsi
	leaq	_ZSt4cout(%rip), %rdi
	call	_ZStlsISt11char_traitsIcEERSt13basic_ostreamIcT_ES5_PKc@PLT
	movq	%rax, %rbx
	movq	-56(%rbp), %rax
	movq	%rax, %rdi
	call	_ZNK7MatricaIdE3dimEv
	movl	%eax, %esi
	movq	%rbx, %rdi
	call	_ZNSolsEi@PLT
	leaq	.LC21(%rip), %rsi
	movq	%rax, %rdi
	call	_ZStlsISt11char_traitsIcEERSt13basic_ostreamIcT_ES5_PKc@PLT
	movq	%rax, %rbx
	movq	-56(%rbp), %rax
	movq	%rax, %rdi
	call	_ZNK7MatricaIdE3dimEv
	sarq	$32, %rax
	movl	%eax, %esi
	movq	%rbx, %rdi
	call	_ZNSolsEi@PLT
	leaq	.LC22(%rip), %rsi
	movq	%rax, %rdi
	call	_ZStlsISt11char_traitsIcEERSt13basic_ostreamIcT_ES5_PKc@PLT
	movq	%rax, %rdx
	movq	_ZSt4endlIcSt11char_traitsIcEERSt13basic_ostreamIT_T0_ES6_@GOTPCREL(%rip), %rax
	movq	%rax, %rsi
	movq	%rdx, %rdi
	call	_ZNSolsEPFRSoS_E@PLT
	movq	-56(%rbp), %rax
	jmp	.L523
.L522:
	movq	%rax, %r12
	movq	%rbx, %rdi
	call	__cxa_free_exception@PLT
	movq	%r12, %rax
	movq	%rax, %rdi
	call	_Unwind_Resume@PLT
.LEHE174:
.L523:
	addq	$64, %rsp
	popq	%rbx
	popq	%r12
	popq	%rbp
	.cfi_def_cfa 7, 8
	ret
	.cfi_endproc
.LFE3953:
	.section	.gcc_except_table
.LLSDA3953:
	.byte	0xff
	.byte	0xff
	.byte	0x1
	.uleb128 .LLSDACSE3953-.LLSDACSB3953
.LLSDACSB3953:
	.uleb128 .LEHB172-.LFB3953
	.uleb128 .LEHE172-.LEHB172
	.uleb128 0
	.uleb128 0
	.uleb128 .LEHB173-.LFB3953
	.uleb128 .LEHE173-.LEHB173
	.uleb128 .L522-.LFB3953
	.uleb128 0
	.uleb128 .LEHB174-.LFB3953
	.uleb128 .LEHE174-.LEHB174
	.uleb128 0
	.uleb128 0
.LLSDACSE3953:
	.section	.text._ZN7MatricaIdEpLERKS0_,"axG",@progbits,_ZN7MatricaIdEpLERKS0_,comdat
	.size	_ZN7MatricaIdEpLERKS0_, .-_ZN7MatricaIdEpLERKS0_
	.section	.text._ZN7MatricaIdEC2Ei,"axG",@progbits,_ZN7MatricaIdEC5Ei,comdat
	.align 2
	.weak	_ZN7MatricaIdEC2Ei
	.type	_ZN7MatricaIdEC2Ei, @function
_ZN7MatricaIdEC2Ei:
.LFB3955:
	.cfi_startproc
	pushq	%rbp
	.cfi_def_cfa_offset 16
	.cfi_offset 6, -16
	movq	%rsp, %rbp
	.cfi_def_cfa_register 6
	subq	$16, %rsp
	movq	%rdi, -8(%rbp)
	movl	%esi, -12(%rbp)
	movl	-12(%rbp), %edx
	movl	-12(%rbp), %ecx
	movq	-8(%rbp), %rax
	movl	%ecx, %esi
	movq	%rax, %rdi
	call	_ZN7MatricaIdEC1Eii
	nop
	leave
	.cfi_def_cfa 7, 8
	ret
	.cfi_endproc
.LFE3955:
	.size	_ZN7MatricaIdEC2Ei, .-_ZN7MatricaIdEC2Ei
	.weak	_ZN7MatricaIdEC1Ei
	.set	_ZN7MatricaIdEC1Ei,_ZN7MatricaIdEC2Ei
	.section	.text._ZNK7MatricaIdE9kvadratnaEv,"axG",@progbits,_ZNK7MatricaIdE9kvadratnaEv,comdat
	.align 2
	.weak	_ZNK7MatricaIdE9kvadratnaEv
	.type	_ZNK7MatricaIdE9kvadratnaEv, @function
_ZNK7MatricaIdE9kvadratnaEv:
.LFB3957:
	.cfi_startproc
	pushq	%rbp
	.cfi_def_cfa_offset 16
	.cfi_offset 6, -16
	movq	%rsp, %rbp
	.cfi_def_cfa_register 6
	subq	$32, %rsp
	movq	%rdi, -24(%rbp)
	movq	-24(%rbp), %rax
	movq	%rax, %rdi
	call	_ZNK7MatricaIdE3dimEv
	movq	%rax, -8(%rbp)
	movl	-8(%rbp), %edx
	movl	-4(%rbp), %eax
	cmpl	%eax, %edx
	sete	%al
	leave
	.cfi_def_cfa 7, 8
	ret
	.cfi_endproc
.LFE3957:
	.size	_ZNK7MatricaIdE9kvadratnaEv, .-_ZNK7MatricaIdE9kvadratnaEv
	.section	.text._ZNK7MatricaIdE18nule_na_dijagonaliEv,"axG",@progbits,_ZNK7MatricaIdE18nule_na_dijagonaliEv,comdat
	.align 2
	.weak	_ZNK7MatricaIdE18nule_na_dijagonaliEv
	.type	_ZNK7MatricaIdE18nule_na_dijagonaliEv, @function
_ZNK7MatricaIdE18nule_na_dijagonaliEv:
.LFB3958:
	.cfi_startproc
	pushq	%rbp
	.cfi_def_cfa_offset 16
	.cfi_offset 6, -16
	movq	%rsp, %rbp
	.cfi_def_cfa_register 6
	pushq	%rbx
	subq	$40, %rsp
	.cfi_offset 3, -24
	movq	%rdi, -40(%rbp)
	movl	$0, -20(%rbp)
.L531:
	movq	-40(%rbp), %rax
	movq	%rax, %rdi
	call	_ZNK7MatricaIdE3dimEv
	cmpl	%eax, -20(%rbp)
	setl	%al
	testb	%al, %al
	je	.L528
	movl	-20(%rbp), %eax
	movslq	%eax, %rbx
	movl	-20(%rbp), %edx
	movq	-40(%rbp), %rax
	movl	%edx, %esi
	movq	%rax, %rdi
	call	_ZNK7MatricaIdEixEi
	movq	%rbx, %rsi
	movq	%rax, %rdi
	call	_ZNKSt6vectorIdSaIdEEixEm
	movq	(%rax), %rax
	movq	%rax, -48(%rbp)
	movsd	-48(%rbp), %xmm0
	call	_ZSt3absd
	movapd	%xmm0, %xmm1
	movsd	.LC24(%rip), %xmm0
	ucomisd	%xmm1, %xmm0
	seta	%al
	testb	%al, %al
	je	.L529
	movl	$1, %eax
	jmp	.L530
.L529:
	addl	$1, -20(%rbp)
	jmp	.L531
.L528:
	movl	$0, %eax
.L530:
	addq	$40, %rsp
	popq	%rbx
	popq	%rbp
	.cfi_def_cfa 7, 8
	ret
	.cfi_endproc
.LFE3958:
	.size	_ZNK7MatricaIdE18nule_na_dijagonaliEv, .-_ZNK7MatricaIdE18nule_na_dijagonaliEv
	.section	.text._ZN9__gnu_cxx14__alloc_traitsISaISt6vectorIdSaIdEEEE27_S_propagate_on_copy_assignEv,"axG",@progbits,_ZN9__gnu_cxx14__alloc_traitsISaISt6vectorIdSaIdEEEE27_S_propagate_on_copy_assignEv,comdat
	.weak	_ZN9__gnu_cxx14__alloc_traitsISaISt6vectorIdSaIdEEEE27_S_propagate_on_copy_assignEv
	.type	_ZN9__gnu_cxx14__alloc_traitsISaISt6vectorIdSaIdEEEE27_S_propagate_on_copy_assignEv, @function
_ZN9__gnu_cxx14__alloc_traitsISaISt6vectorIdSaIdEEEE27_S_propagate_on_copy_assignEv:
.LFB3960:
	.cfi_startproc
	pushq	%rbp
	.cfi_def_cfa_offset 16
	.cfi_offset 6, -16
	movq	%rsp, %rbp
	.cfi_def_cfa_register 6
	movl	$0, %eax
	popq	%rbp
	.cfi_def_cfa 7, 8
	ret
	.cfi_endproc
.LFE3960:
	.size	_ZN9__gnu_cxx14__alloc_traitsISaISt6vectorIdSaIdEEEE27_S_propagate_on_copy_assignEv, .-_ZN9__gnu_cxx14__alloc_traitsISaISt6vectorIdSaIdEEEE27_S_propagate_on_copy_assignEv
	.section	.text._ZN9__gnu_cxx14__alloc_traitsISaISt6vectorIdSaIdEEEE15_S_always_equalEv,"axG",@progbits,_ZN9__gnu_cxx14__alloc_traitsISaISt6vectorIdSaIdEEEE15_S_always_equalEv,comdat
	.weak	_ZN9__gnu_cxx14__alloc_traitsISaISt6vectorIdSaIdEEEE15_S_always_equalEv
	.type	_ZN9__gnu_cxx14__alloc_traitsISaISt6vectorIdSaIdEEEE15_S_always_equalEv, @function
_ZN9__gnu_cxx14__alloc_traitsISaISt6vectorIdSaIdEEEE15_S_always_equalEv:
.LFB3961:
	.cfi_startproc
	pushq	%rbp
	.cfi_def_cfa_offset 16
	.cfi_offset 6, -16
	movq	%rsp, %rbp
	.cfi_def_cfa_register 6
	movl	$1, %eax
	popq	%rbp
	.cfi_def_cfa 7, 8
	ret
	.cfi_endproc
.LFE3961:
	.size	_ZN9__gnu_cxx14__alloc_traitsISaISt6vectorIdSaIdEEEE15_S_always_equalEv, .-_ZN9__gnu_cxx14__alloc_traitsISaISt6vectorIdSaIdEEEE15_S_always_equalEv
	.section	.text._ZNSt6vectorIS_IdSaIdEESaIS1_EEaSERKS3_,"axG",@progbits,_ZNSt6vectorIS_IdSaIdEESaIS1_EEaSERKS3_,comdat
	.align 2
	.weak	_ZNSt6vectorIS_IdSaIdEESaIS1_EEaSERKS3_
	.type	_ZNSt6vectorIS_IdSaIdEESaIS1_EEaSERKS3_, @function
_ZNSt6vectorIS_IdSaIdEESaIS1_EEaSERKS3_:
.LFB3959:
	.cfi_startproc
	pushq	%rbp
	.cfi_def_cfa_offset 16
	.cfi_offset 6, -16
	movq	%rsp, %rbp
	.cfi_def_cfa_register 6
	pushq	%r14
	pushq	%r13
	pushq	%r12
	pushq	%rbx
	subq	$32, %rsp
	.cfi_offset 14, -24
	.cfi_offset 13, -32
	.cfi_offset 12, -40
	.cfi_offset 3, -48
	movq	%rdi, -56(%rbp)
	movq	%rsi, -64(%rbp)
	movq	-64(%rbp), %rax
	cmpq	-56(%rbp), %rax
	je	.L537
	call	_ZN9__gnu_cxx14__alloc_traitsISaISt6vectorIdSaIdEEEE27_S_propagate_on_copy_assignEv
	testb	%al, %al
	je	.L538
	call	_ZN9__gnu_cxx14__alloc_traitsISaISt6vectorIdSaIdEEEE15_S_always_equalEv
	xorl	$1, %eax
	testb	%al, %al
	je	.L539
	movq	-64(%rbp), %rax
	movq	%rax, %rdi
	call	_ZNKSt12_Vector_baseISt6vectorIdSaIdEESaIS2_EE19_M_get_Tp_allocatorEv
	movq	%rax, %rbx
	movq	-56(%rbp), %rax
	movq	%rax, %rdi
	call	_ZNSt12_Vector_baseISt6vectorIdSaIdEESaIS2_EE19_M_get_Tp_allocatorEv
	movq	%rbx, %rsi
	movq	%rax, %rdi
	call	_ZStneISt6vectorIdSaIdEEEbRKSaIT_ES6_
	testb	%al, %al
	je	.L539
	movl	$1, %eax
	jmp	.L540
.L539:
	movl	$0, %eax
.L540:
	testb	%al, %al
	je	.L541
	movq	-56(%rbp), %rax
	movq	%rax, %rdi
	call	_ZNSt6vectorIS_IdSaIdEESaIS1_EE5clearEv
	movq	-56(%rbp), %rax
	movq	-56(%rbp), %rdx
	movq	16(%rdx), %rdx
	movq	%rdx, %rcx
	movq	-56(%rbp), %rdx
	movq	(%rdx), %rdx
	subq	%rdx, %rcx
	movq	%rcx, %rdx
	movq	%rdx, %rcx
	sarq	$3, %rcx
	movabsq	$-6148914691236517205, %rdx
	imulq	%rcx, %rdx
	movq	%rdx, %rsi
	movq	-56(%rbp), %rdx
	movq	(%rdx), %rcx
	movq	%rsi, %rdx
	movq	%rcx, %rsi
	movq	%rax, %rdi
	call	_ZNSt12_Vector_baseISt6vectorIdSaIdEESaIS2_EE13_M_deallocateEPS2_m
	movq	-56(%rbp), %rax
	movq	$0, (%rax)
	movq	-56(%rbp), %rax
	movq	$0, 8(%rax)
	movq	-56(%rbp), %rax
	movq	$0, 16(%rax)
.L541:
	movq	-64(%rbp), %rax
	movq	%rax, %rdi
	call	_ZNKSt12_Vector_baseISt6vectorIdSaIdEESaIS2_EE19_M_get_Tp_allocatorEv
	movq	%rax, %rbx
	movq	-56(%rbp), %rax
	movq	%rax, %rdi
	call	_ZNSt12_Vector_baseISt6vectorIdSaIdEESaIS2_EE19_M_get_Tp_allocatorEv
	movq	%rbx, %rsi
	movq	%rax, %rdi
	call	_ZSt15__alloc_on_copyISaISt6vectorIdSaIdEEEEvRT_RKS4_
.L538:
	movq	-64(%rbp), %rax
	movq	%rax, %rdi
	call	_ZNKSt6vectorIS_IdSaIdEESaIS1_EE4sizeEv
	movq	%rax, -40(%rbp)
	movq	-56(%rbp), %rax
	movq	%rax, %rdi
	call	_ZNKSt6vectorIS_IdSaIdEESaIS1_EE8capacityEv
	cmpq	%rax, -40(%rbp)
	seta	%al
	testb	%al, %al
	je	.L542
	movq	-64(%rbp), %rax
	movq	%rax, %rdi
	call	_ZNKSt6vectorIS_IdSaIdEESaIS1_EE3endEv
	movq	%rax, %rbx
	movq	-64(%rbp), %rax
	movq	%rax, %rdi
	call	_ZNKSt6vectorIS_IdSaIdEESaIS1_EE5beginEv
	movq	%rax, %rdx
	movq	-40(%rbp), %rsi
	movq	-56(%rbp), %rax
	movq	%rbx, %rcx
	movq	%rax, %rdi
	call	_ZNSt6vectorIS_IdSaIdEESaIS1_EE20_M_allocate_and_copyIN9__gnu_cxx17__normal_iteratorIPKS1_S3_EEEEPS1_mT_SB_
	movq	%rax, -48(%rbp)
	movq	-56(%rbp), %rax
	movq	%rax, %rdi
	call	_ZNSt12_Vector_baseISt6vectorIdSaIdEESaIS2_EE19_M_get_Tp_allocatorEv
	movq	%rax, %rdx
	movq	-56(%rbp), %rax
	movq	8(%rax), %rcx
	movq	-56(%rbp), %rax
	movq	(%rax), %rax
	movq	%rcx, %rsi
	movq	%rax, %rdi
	call	_ZSt8_DestroyIPSt6vectorIdSaIdEES2_EvT_S4_RSaIT0_E
	movq	-56(%rbp), %rax
	movq	-56(%rbp), %rdx
	movq	16(%rdx), %rdx
	movq	%rdx, %rcx
	movq	-56(%rbp), %rdx
	movq	(%rdx), %rdx
	subq	%rdx, %rcx
	movq	%rcx, %rdx
	movq	%rdx, %rcx
	sarq	$3, %rcx
	movabsq	$-6148914691236517205, %rdx
	imulq	%rcx, %rdx
	movq	%rdx, %rsi
	movq	-56(%rbp), %rdx
	movq	(%rdx), %rcx
	movq	%rsi, %rdx
	movq	%rcx, %rsi
	movq	%rax, %rdi
	call	_ZNSt12_Vector_baseISt6vectorIdSaIdEESaIS2_EE13_M_deallocateEPS2_m
	movq	-56(%rbp), %rax
	movq	-48(%rbp), %rdx
	movq	%rdx, (%rax)
	movq	-56(%rbp), %rax
	movq	(%rax), %rcx
	movq	-40(%rbp), %rdx
	movq	%rdx, %rax
	addq	%rax, %rax
	addq	%rdx, %rax
	salq	$3, %rax
	leaq	(%rcx,%rax), %rdx
	movq	-56(%rbp), %rax
	movq	%rdx, 16(%rax)
	jmp	.L543
.L542:
	movq	-56(%rbp), %rax
	movq	%rax, %rdi
	call	_ZNKSt6vectorIS_IdSaIdEESaIS1_EE4sizeEv
	cmpq	%rax, -40(%rbp)
	setbe	%al
	testb	%al, %al
	je	.L544
	movq	-56(%rbp), %rax
	movq	%rax, %rdi
	call	_ZNSt12_Vector_baseISt6vectorIdSaIdEESaIS2_EE19_M_get_Tp_allocatorEv
	movq	%rax, %r12
	movq	-56(%rbp), %rax
	movq	%rax, %rdi
	call	_ZNSt6vectorIS_IdSaIdEESaIS1_EE3endEv
	movq	%rax, %rbx
	movq	-56(%rbp), %rax
	movq	%rax, %rdi
	call	_ZNSt6vectorIS_IdSaIdEESaIS1_EE5beginEv
	movq	%rax, %r14
	movq	-64(%rbp), %rax
	movq	%rax, %rdi
	call	_ZNKSt6vectorIS_IdSaIdEESaIS1_EE3endEv
	movq	%rax, %r13
	movq	-64(%rbp), %rax
	movq	%rax, %rdi
	call	_ZNKSt6vectorIS_IdSaIdEESaIS1_EE5beginEv
	movq	%r14, %rdx
	movq	%r13, %rsi
	movq	%rax, %rdi
	call	_ZSt4copyIN9__gnu_cxx17__normal_iteratorIPKSt6vectorIdSaIdEES2_IS4_SaIS4_EEEENS1_IPS4_S8_EEET0_T_SD_SC_
	movq	%r12, %rdx
	movq	%rbx, %rsi
	movq	%rax, %rdi
	call	_ZSt8_DestroyIN9__gnu_cxx17__normal_iteratorIPSt6vectorIdSaIdEES2_IS4_SaIS4_EEEES4_EvT_S9_RSaIT0_E
	jmp	.L543
.L544:
	movq	-56(%rbp), %rax
	movq	(%rax), %rbx
	movq	-64(%rbp), %rax
	movq	(%rax), %r12
	movq	-56(%rbp), %rax
	movq	%rax, %rdi
	call	_ZNKSt6vectorIS_IdSaIdEESaIS1_EE4sizeEv
	movq	%rax, %rdx
	movq	%rdx, %rax
	addq	%rax, %rax
	addq	%rdx, %rax
	salq	$3, %rax
	leaq	(%r12,%rax), %rcx
	movq	-64(%rbp), %rax
	movq	(%rax), %rax
	movq	%rbx, %rdx
	movq	%rcx, %rsi
	movq	%rax, %rdi
	call	_ZSt4copyIPSt6vectorIdSaIdEES3_ET0_T_S5_S4_
	movq	-56(%rbp), %rax
	movq	%rax, %rdi
	call	_ZNSt12_Vector_baseISt6vectorIdSaIdEESaIS2_EE19_M_get_Tp_allocatorEv
	movq	%rax, %r14
	movq	-56(%rbp), %rax
	movq	8(%rax), %r12
	movq	-64(%rbp), %rax
	movq	8(%rax), %rbx
	movq	-64(%rbp), %rax
	movq	(%rax), %r13
	movq	-56(%rbp), %rax
	movq	%rax, %rdi
	call	_ZNKSt6vectorIS_IdSaIdEESaIS1_EE4sizeEv
	movq	%rax, %rdx
	movq	%rdx, %rax
	addq	%rax, %rax
	addq	%rdx, %rax
	salq	$3, %rax
	addq	%r13, %rax
	movq	%r14, %rcx
	movq	%r12, %rdx
	movq	%rbx, %rsi
	movq	%rax, %rdi
	call	_ZSt22__uninitialized_copy_aIPSt6vectorIdSaIdEES3_S2_ET0_T_S5_S4_RSaIT1_E
.L543:
	movq	-56(%rbp), %rax
	movq	(%rax), %rcx
	movq	-40(%rbp), %rdx
	movq	%rdx, %rax
	addq	%rax, %rax
	addq	%rdx, %rax
	salq	$3, %rax
	leaq	(%rcx,%rax), %rdx
	movq	-56(%rbp), %rax
	movq	%rdx, 8(%rax)
.L537:
	movq	-56(%rbp), %rax
	addq	$32, %rsp
	popq	%rbx
	popq	%r12
	popq	%r13
	popq	%r14
	popq	%rbp
	.cfi_def_cfa 7, 8
	ret
	.cfi_endproc
.LFE3959:
	.size	_ZNSt6vectorIS_IdSaIdEESaIS1_EEaSERKS3_, .-_ZNSt6vectorIS_IdSaIdEESaIS1_EEaSERKS3_
	.section	.text._ZN9__gnu_cxx14__alloc_traitsISaImEE27_S_propagate_on_copy_assignEv,"axG",@progbits,_ZN9__gnu_cxx14__alloc_traitsISaImEE27_S_propagate_on_copy_assignEv,comdat
	.weak	_ZN9__gnu_cxx14__alloc_traitsISaImEE27_S_propagate_on_copy_assignEv
	.type	_ZN9__gnu_cxx14__alloc_traitsISaImEE27_S_propagate_on_copy_assignEv, @function
_ZN9__gnu_cxx14__alloc_traitsISaImEE27_S_propagate_on_copy_assignEv:
.LFB3963:
	.cfi_startproc
	pushq	%rbp
	.cfi_def_cfa_offset 16
	.cfi_offset 6, -16
	movq	%rsp, %rbp
	.cfi_def_cfa_register 6
	movl	$0, %eax
	popq	%rbp
	.cfi_def_cfa 7, 8
	ret
	.cfi_endproc
.LFE3963:
	.size	_ZN9__gnu_cxx14__alloc_traitsISaImEE27_S_propagate_on_copy_assignEv, .-_ZN9__gnu_cxx14__alloc_traitsISaImEE27_S_propagate_on_copy_assignEv
	.section	.text._ZN9__gnu_cxx14__alloc_traitsISaImEE15_S_always_equalEv,"axG",@progbits,_ZN9__gnu_cxx14__alloc_traitsISaImEE15_S_always_equalEv,comdat
	.weak	_ZN9__gnu_cxx14__alloc_traitsISaImEE15_S_always_equalEv
	.type	_ZN9__gnu_cxx14__alloc_traitsISaImEE15_S_always_equalEv, @function
_ZN9__gnu_cxx14__alloc_traitsISaImEE15_S_always_equalEv:
.LFB3964:
	.cfi_startproc
	pushq	%rbp
	.cfi_def_cfa_offset 16
	.cfi_offset 6, -16
	movq	%rsp, %rbp
	.cfi_def_cfa_register 6
	movl	$1, %eax
	popq	%rbp
	.cfi_def_cfa 7, 8
	ret
	.cfi_endproc
.LFE3964:
	.size	_ZN9__gnu_cxx14__alloc_traitsISaImEE15_S_always_equalEv, .-_ZN9__gnu_cxx14__alloc_traitsISaImEE15_S_always_equalEv
	.section	.text._ZNSt6vectorImSaImEEaSERKS1_,"axG",@progbits,_ZNSt6vectorImSaImEEaSERKS1_,comdat
	.align 2
	.weak	_ZNSt6vectorImSaImEEaSERKS1_
	.type	_ZNSt6vectorImSaImEEaSERKS1_, @function
_ZNSt6vectorImSaImEEaSERKS1_:
.LFB3962:
	.cfi_startproc
	pushq	%rbp
	.cfi_def_cfa_offset 16
	.cfi_offset 6, -16
	movq	%rsp, %rbp
	.cfi_def_cfa_register 6
	pushq	%r14
	pushq	%r13
	pushq	%r12
	pushq	%rbx
	subq	$32, %rsp
	.cfi_offset 14, -24
	.cfi_offset 13, -32
	.cfi_offset 12, -40
	.cfi_offset 3, -48
	movq	%rdi, -56(%rbp)
	movq	%rsi, -64(%rbp)
	movq	-64(%rbp), %rax
	cmpq	-56(%rbp), %rax
	je	.L551
	call	_ZN9__gnu_cxx14__alloc_traitsISaImEE27_S_propagate_on_copy_assignEv
	testb	%al, %al
	je	.L552
	call	_ZN9__gnu_cxx14__alloc_traitsISaImEE15_S_always_equalEv
	xorl	$1, %eax
	testb	%al, %al
	je	.L553
	movq	-64(%rbp), %rax
	movq	%rax, %rdi
	call	_ZNKSt12_Vector_baseImSaImEE19_M_get_Tp_allocatorEv
	movq	%rax, %rbx
	movq	-56(%rbp), %rax
	movq	%rax, %rdi
	call	_ZNSt12_Vector_baseImSaImEE19_M_get_Tp_allocatorEv
	movq	%rbx, %rsi
	movq	%rax, %rdi
	call	_ZStneImEbRKSaIT_ES3_
	testb	%al, %al
	je	.L553
	movl	$1, %eax
	jmp	.L554
.L553:
	movl	$0, %eax
.L554:
	testb	%al, %al
	je	.L555
	movq	-56(%rbp), %rax
	movq	%rax, %rdi
	call	_ZNSt6vectorImSaImEE5clearEv
	movq	-56(%rbp), %rax
	movq	-56(%rbp), %rdx
	movq	16(%rdx), %rdx
	movq	%rdx, %rcx
	movq	-56(%rbp), %rdx
	movq	(%rdx), %rdx
	subq	%rdx, %rcx
	movq	%rcx, %rdx
	sarq	$3, %rdx
	movq	%rdx, %rsi
	movq	-56(%rbp), %rdx
	movq	(%rdx), %rcx
	movq	%rsi, %rdx
	movq	%rcx, %rsi
	movq	%rax, %rdi
	call	_ZNSt12_Vector_baseImSaImEE13_M_deallocateEPmm
	movq	-56(%rbp), %rax
	movq	$0, (%rax)
	movq	-56(%rbp), %rax
	movq	$0, 8(%rax)
	movq	-56(%rbp), %rax
	movq	$0, 16(%rax)
.L555:
	movq	-64(%rbp), %rax
	movq	%rax, %rdi
	call	_ZNKSt12_Vector_baseImSaImEE19_M_get_Tp_allocatorEv
	movq	%rax, %rbx
	movq	-56(%rbp), %rax
	movq	%rax, %rdi
	call	_ZNSt12_Vector_baseImSaImEE19_M_get_Tp_allocatorEv
	movq	%rbx, %rsi
	movq	%rax, %rdi
	call	_ZSt15__alloc_on_copyISaImEEvRT_RKS1_
.L552:
	movq	-64(%rbp), %rax
	movq	%rax, %rdi
	call	_ZNKSt6vectorImSaImEE4sizeEv
	movq	%rax, -40(%rbp)
	movq	-56(%rbp), %rax
	movq	%rax, %rdi
	call	_ZNKSt6vectorImSaImEE8capacityEv
	cmpq	%rax, -40(%rbp)
	seta	%al
	testb	%al, %al
	je	.L556
	movq	-64(%rbp), %rax
	movq	%rax, %rdi
	call	_ZNKSt6vectorImSaImEE3endEv
	movq	%rax, %rbx
	movq	-64(%rbp), %rax
	movq	%rax, %rdi
	call	_ZNKSt6vectorImSaImEE5beginEv
	movq	%rax, %rdx
	movq	-40(%rbp), %rsi
	movq	-56(%rbp), %rax
	movq	%rbx, %rcx
	movq	%rax, %rdi
	call	_ZNSt6vectorImSaImEE20_M_allocate_and_copyIN9__gnu_cxx17__normal_iteratorIPKmS1_EEEEPmmT_S9_
	movq	%rax, -48(%rbp)
	movq	-56(%rbp), %rax
	movq	%rax, %rdi
	call	_ZNSt12_Vector_baseImSaImEE19_M_get_Tp_allocatorEv
	movq	%rax, %rdx
	movq	-56(%rbp), %rax
	movq	8(%rax), %rcx
	movq	-56(%rbp), %rax
	movq	(%rax), %rax
	movq	%rcx, %rsi
	movq	%rax, %rdi
	call	_ZSt8_DestroyIPmmEvT_S1_RSaIT0_E
	movq	-56(%rbp), %rax
	movq	-56(%rbp), %rdx
	movq	16(%rdx), %rdx
	movq	%rdx, %rcx
	movq	-56(%rbp), %rdx
	movq	(%rdx), %rdx
	subq	%rdx, %rcx
	movq	%rcx, %rdx
	sarq	$3, %rdx
	movq	%rdx, %rsi
	movq	-56(%rbp), %rdx
	movq	(%rdx), %rcx
	movq	%rsi, %rdx
	movq	%rcx, %rsi
	movq	%rax, %rdi
	call	_ZNSt12_Vector_baseImSaImEE13_M_deallocateEPmm
	movq	-56(%rbp), %rax
	movq	-48(%rbp), %rdx
	movq	%rdx, (%rax)
	movq	-56(%rbp), %rax
	movq	(%rax), %rax
	movq	-40(%rbp), %rdx
	salq	$3, %rdx
	addq	%rax, %rdx
	movq	-56(%rbp), %rax
	movq	%rdx, 16(%rax)
	jmp	.L557
.L556:
	movq	-56(%rbp), %rax
	movq	%rax, %rdi
	call	_ZNKSt6vectorImSaImEE4sizeEv
	cmpq	%rax, -40(%rbp)
	setbe	%al
	testb	%al, %al
	je	.L558
	movq	-56(%rbp), %rax
	movq	%rax, %rdi
	call	_ZNSt12_Vector_baseImSaImEE19_M_get_Tp_allocatorEv
	movq	%rax, %r12
	movq	-56(%rbp), %rax
	movq	%rax, %rdi
	call	_ZNSt6vectorImSaImEE3endEv
	movq	%rax, %rbx
	movq	-56(%rbp), %rax
	movq	%rax, %rdi
	call	_ZNSt6vectorImSaImEE5beginEv
	movq	%rax, %r14
	movq	-64(%rbp), %rax
	movq	%rax, %rdi
	call	_ZNKSt6vectorImSaImEE3endEv
	movq	%rax, %r13
	movq	-64(%rbp), %rax
	movq	%rax, %rdi
	call	_ZNKSt6vectorImSaImEE5beginEv
	movq	%r14, %rdx
	movq	%r13, %rsi
	movq	%rax, %rdi
	call	_ZSt4copyIN9__gnu_cxx17__normal_iteratorIPKmSt6vectorImSaImEEEENS1_IPmS6_EEET0_T_SB_SA_
	movq	%r12, %rdx
	movq	%rbx, %rsi
	movq	%rax, %rdi
	call	_ZSt8_DestroyIN9__gnu_cxx17__normal_iteratorIPmSt6vectorImSaImEEEEmEvT_S7_RSaIT0_E
	jmp	.L557
.L558:
	movq	-56(%rbp), %rax
	movq	(%rax), %rbx
	movq	-64(%rbp), %rax
	movq	(%rax), %r12
	movq	-56(%rbp), %rax
	movq	%rax, %rdi
	call	_ZNKSt6vectorImSaImEE4sizeEv
	salq	$3, %rax
	leaq	(%r12,%rax), %rcx
	movq	-64(%rbp), %rax
	movq	(%rax), %rax
	movq	%rbx, %rdx
	movq	%rcx, %rsi
	movq	%rax, %rdi
	call	_ZSt4copyIPmS0_ET0_T_S2_S1_
	movq	-56(%rbp), %rax
	movq	%rax, %rdi
	call	_ZNSt12_Vector_baseImSaImEE19_M_get_Tp_allocatorEv
	movq	%rax, %r14
	movq	-56(%rbp), %rax
	movq	8(%rax), %r12
	movq	-64(%rbp), %rax
	movq	8(%rax), %rbx
	movq	-64(%rbp), %rax
	movq	(%rax), %r13
	movq	-56(%rbp), %rax
	movq	%rax, %rdi
	call	_ZNKSt6vectorImSaImEE4sizeEv
	salq	$3, %rax
	addq	%r13, %rax
	movq	%r14, %rcx
	movq	%r12, %rdx
	movq	%rbx, %rsi
	movq	%rax, %rdi
	call	_ZSt22__uninitialized_copy_aIPmS0_mET0_T_S2_S1_RSaIT1_E
.L557:
	movq	-56(%rbp), %rax
	movq	(%rax), %rax
	movq	-40(%rbp), %rdx
	salq	$3, %rdx
	addq	%rax, %rdx
	movq	-56(%rbp), %rax
	movq	%rdx, 8(%rax)
.L551:
	movq	-56(%rbp), %rax
	addq	$32, %rsp
	popq	%rbx
	popq	%r12
	popq	%r13
	popq	%r14
	popq	%rbp
	.cfi_def_cfa 7, 8
	ret
	.cfi_endproc
.LFE3962:
	.size	_ZNSt6vectorImSaImEEaSERKS1_, .-_ZNSt6vectorImSaImEEaSERKS1_
	.section	.text._ZN7MatricaIdE14zamijeni_retkeEii,"axG",@progbits,_ZN7MatricaIdE14zamijeni_retkeEii,comdat
	.align 2
	.weak	_ZN7MatricaIdE14zamijeni_retkeEii
	.type	_ZN7MatricaIdE14zamijeni_retkeEii, @function
_ZN7MatricaIdE14zamijeni_retkeEii:
.LFB3965:
	.cfi_startproc
	pushq	%rbp
	.cfi_def_cfa_offset 16
	.cfi_offset 6, -16
	movq	%rsp, %rbp
	.cfi_def_cfa_register 6
	pushq	%rbx
	subq	$24, %rsp
	.cfi_offset 3, -24
	movq	%rdi, -24(%rbp)
	movl	%esi, -28(%rbp)
	movl	%edx, -32(%rbp)
	movl	-32(%rbp), %eax
	cltq
	movq	-24(%rbp), %rdx
	addq	$32, %rdx
	movq	%rax, %rsi
	movq	%rdx, %rdi
	call	_ZNSt6vectorImSaImEEixEm
	movq	%rax, %rbx
	movl	-28(%rbp), %eax
	cltq
	movq	-24(%rbp), %rdx
	addq	$32, %rdx
	movq	%rax, %rsi
	movq	%rdx, %rdi
	call	_ZNSt6vectorImSaImEEixEm
	movq	%rbx, %rsi
	movq	%rax, %rdi
	call	_ZSt4swapImENSt9enable_ifIXsrSt6__and_IJSt6__not_ISt15__is_tuple_likeIT_EESt21is_move_constructibleIS4_ESt18is_move_assignableIS4_EEE5valueEvE4typeERS4_SE_
	nop
	addq	$24, %rsp
	popq	%rbx
	popq	%rbp
	.cfi_def_cfa 7, 8
	ret
	.cfi_endproc
.LFE3965:
	.size	_ZN7MatricaIdE14zamijeni_retkeEii, .-_ZN7MatricaIdE14zamijeni_retkeEii
	.section	.text._ZNKSt16initializer_listIdE4sizeEv,"axG",@progbits,_ZNKSt16initializer_listIdE4sizeEv,comdat
	.align 2
	.weak	_ZNKSt16initializer_listIdE4sizeEv
	.type	_ZNKSt16initializer_listIdE4sizeEv, @function
_ZNKSt16initializer_listIdE4sizeEv:
.LFB3966:
	.cfi_startproc
	pushq	%rbp
	.cfi_def_cfa_offset 16
	.cfi_offset 6, -16
	movq	%rsp, %rbp
	.cfi_def_cfa_register 6
	movq	%rdi, -8(%rbp)
	movq	-8(%rbp), %rax
	movq	8(%rax), %rax
	popq	%rbp
	.cfi_def_cfa 7, 8
	ret
	.cfi_endproc
.LFE3966:
	.size	_ZNKSt16initializer_listIdE4sizeEv, .-_ZNKSt16initializer_listIdE4sizeEv
	.section	.text._ZSt22__valarray_get_storageIdErPT_m,"axG",@progbits,_ZSt22__valarray_get_storageIdErPT_m,comdat
	.weak	_ZSt22__valarray_get_storageIdErPT_m
	.type	_ZSt22__valarray_get_storageIdErPT_m, @function
_ZSt22__valarray_get_storageIdErPT_m:
.LFB3967:
	.cfi_startproc
	pushq	%rbp
	.cfi_def_cfa_offset 16
	.cfi_offset 6, -16
	movq	%rsp, %rbp
	.cfi_def_cfa_register 6
	subq	$16, %rsp
	movq	%rdi, -8(%rbp)
	movq	-8(%rbp), %rax
	salq	$3, %rax
	movq	%rax, %rdi
	call	_ZSt21__valarray_get_memorym
	leave
	.cfi_def_cfa 7, 8
	ret
	.cfi_endproc
.LFE3967:
	.size	_ZSt22__valarray_get_storageIdErPT_m, .-_ZSt22__valarray_get_storageIdErPT_m
	.section	.text._ZNKSt16initializer_listIdE5beginEv,"axG",@progbits,_ZNKSt16initializer_listIdE5beginEv,comdat
	.align 2
	.weak	_ZNKSt16initializer_listIdE5beginEv
	.type	_ZNKSt16initializer_listIdE5beginEv, @function
_ZNKSt16initializer_listIdE5beginEv:
.LFB3968:
	.cfi_startproc
	pushq	%rbp
	.cfi_def_cfa_offset 16
	.cfi_offset 6, -16
	movq	%rsp, %rbp
	.cfi_def_cfa_register 6
	movq	%rdi, -8(%rbp)
	movq	-8(%rbp), %rax
	movq	(%rax), %rax
	popq	%rbp
	.cfi_def_cfa 7, 8
	ret
	.cfi_endproc
.LFE3968:
	.size	_ZNKSt16initializer_listIdE5beginEv, .-_ZNKSt16initializer_listIdE5beginEv
	.section	.text._ZNKSt16initializer_listIdE3endEv,"axG",@progbits,_ZNKSt16initializer_listIdE3endEv,comdat
	.align 2
	.weak	_ZNKSt16initializer_listIdE3endEv
	.type	_ZNKSt16initializer_listIdE3endEv, @function
_ZNKSt16initializer_listIdE3endEv:
.LFB3969:
	.cfi_startproc
	pushq	%rbp
	.cfi_def_cfa_offset 16
	.cfi_offset 6, -16
	movq	%rsp, %rbp
	.cfi_def_cfa_register 6
	pushq	%rbx
	subq	$24, %rsp
	.cfi_offset 3, -24
	movq	%rdi, -24(%rbp)
	movq	-24(%rbp), %rax
	movq	%rax, %rdi
	call	_ZNKSt16initializer_listIdE5beginEv
	movq	%rax, %rbx
	movq	-24(%rbp), %rax
	movq	%rax, %rdi
	call	_ZNKSt16initializer_listIdE4sizeEv
	salq	$3, %rax
	addq	%rbx, %rax
	addq	$24, %rsp
	popq	%rbx
	popq	%rbp
	.cfi_def_cfa 7, 8
	ret
	.cfi_endproc
.LFE3969:
	.size	_ZNKSt16initializer_listIdE3endEv, .-_ZNKSt16initializer_listIdE3endEv
	.section	.text._ZSt25__valarray_copy_constructIdEvPKT_S2_PS0_,"axG",@progbits,_ZSt25__valarray_copy_constructIdEvPKT_S2_PS0_,comdat
	.weak	_ZSt25__valarray_copy_constructIdEvPKT_S2_PS0_
	.type	_ZSt25__valarray_copy_constructIdEvPKT_S2_PS0_, @function
_ZSt25__valarray_copy_constructIdEvPKT_S2_PS0_:
.LFB3970:
	.cfi_startproc
	pushq	%rbp
	.cfi_def_cfa_offset 16
	.cfi_offset 6, -16
	movq	%rsp, %rbp
	.cfi_def_cfa_register 6
	subq	$32, %rsp
	movq	%rdi, -8(%rbp)
	movq	%rsi, -16(%rbp)
	movq	%rdx, -24(%rbp)
	movq	-24(%rbp), %rdx
	movq	-16(%rbp), %rcx
	movq	-8(%rbp), %rax
	movq	%rcx, %rsi
	movq	%rax, %rdi
	call	_ZNSt16_Array_copy_ctorIdLb1EE8_S_do_itEPKdS2_Pd
	nop
	leave
	.cfi_def_cfa 7, 8
	ret
	.cfi_endproc
.LFE3970:
	.size	_ZSt25__valarray_copy_constructIdEvPKT_S2_PS0_, .-_ZSt25__valarray_copy_constructIdEvPKT_S2_PS0_
	.section	.text._ZSt27__valarray_destroy_elementsIdEvPT_S1_,"axG",@progbits,_ZSt27__valarray_destroy_elementsIdEvPT_S1_,comdat
	.weak	_ZSt27__valarray_destroy_elementsIdEvPT_S1_
	.type	_ZSt27__valarray_destroy_elementsIdEvPT_S1_, @function
_ZSt27__valarray_destroy_elementsIdEvPT_S1_:
.LFB3971:
	.cfi_startproc
	pushq	%rbp
	.cfi_def_cfa_offset 16
	.cfi_offset 6, -16
	movq	%rsp, %rbp
	.cfi_def_cfa_register 6
	movq	%rdi, -8(%rbp)
	movq	%rsi, -16(%rbp)
	nop
	popq	%rbp
	.cfi_def_cfa 7, 8
	ret
	.cfi_endproc
.LFE3971:
	.size	_ZSt27__valarray_destroy_elementsIdEvPT_S1_, .-_ZSt27__valarray_destroy_elementsIdEvPT_S1_
	.section	.text._ZNKSt8valarrayIdE4sizeEv,"axG",@progbits,_ZNKSt8valarrayIdE4sizeEv,comdat
	.align 2
	.weak	_ZNKSt8valarrayIdE4sizeEv
	.type	_ZNKSt8valarrayIdE4sizeEv, @function
_ZNKSt8valarrayIdE4sizeEv:
.LFB3972:
	.cfi_startproc
	pushq	%rbp
	.cfi_def_cfa_offset 16
	.cfi_offset 6, -16
	movq	%rsp, %rbp
	.cfi_def_cfa_register 6
	movq	%rdi, -8(%rbp)
	movq	-8(%rbp), %rax
	movq	(%rax), %rax
	popq	%rbp
	.cfi_def_cfa 7, 8
	ret
	.cfi_endproc
.LFE3972:
	.size	_ZNKSt8valarrayIdE4sizeEv, .-_ZNKSt8valarrayIdE4sizeEv
	.section	.text._ZNSaISt6vectorIdSaIdEEEC2Ev,"axG",@progbits,_ZNSaISt6vectorIdSaIdEEEC5Ev,comdat
	.align 2
	.weak	_ZNSaISt6vectorIdSaIdEEEC2Ev
	.type	_ZNSaISt6vectorIdSaIdEEEC2Ev, @function
_ZNSaISt6vectorIdSaIdEEEC2Ev:
.LFB3974:
	.cfi_startproc
	pushq	%rbp
	.cfi_def_cfa_offset 16
	.cfi_offset 6, -16
	movq	%rsp, %rbp
	.cfi_def_cfa_register 6
	subq	$16, %rsp
	movq	%rdi, -8(%rbp)
	movq	-8(%rbp), %rax
	movq	%rax, %rdi
	call	_ZN9__gnu_cxx13new_allocatorISt6vectorIdSaIdEEEC2Ev
	nop
	leave
	.cfi_def_cfa 7, 8
	ret
	.cfi_endproc
.LFE3974:
	.size	_ZNSaISt6vectorIdSaIdEEEC2Ev, .-_ZNSaISt6vectorIdSaIdEEEC2Ev
	.weak	_ZNSaISt6vectorIdSaIdEEEC1Ev
	.set	_ZNSaISt6vectorIdSaIdEEEC1Ev,_ZNSaISt6vectorIdSaIdEEEC2Ev
	.section	.text._ZNSaISt6vectorIdSaIdEEED2Ev,"axG",@progbits,_ZNSaISt6vectorIdSaIdEEED5Ev,comdat
	.align 2
	.weak	_ZNSaISt6vectorIdSaIdEEED2Ev
	.type	_ZNSaISt6vectorIdSaIdEEED2Ev, @function
_ZNSaISt6vectorIdSaIdEEED2Ev:
.LFB3977:
	.cfi_startproc
	pushq	%rbp
	.cfi_def_cfa_offset 16
	.cfi_offset 6, -16
	movq	%rsp, %rbp
	.cfi_def_cfa_register 6
	subq	$16, %rsp
	movq	%rdi, -8(%rbp)
	movq	-8(%rbp), %rax
	movq	%rax, %rdi
	call	_ZN9__gnu_cxx13new_allocatorISt6vectorIdSaIdEEED2Ev
	nop
	leave
	.cfi_def_cfa 7, 8
	ret
	.cfi_endproc
.LFE3977:
	.size	_ZNSaISt6vectorIdSaIdEEED2Ev, .-_ZNSaISt6vectorIdSaIdEEED2Ev
	.weak	_ZNSaISt6vectorIdSaIdEEED1Ev
	.set	_ZNSaISt6vectorIdSaIdEEED1Ev,_ZNSaISt6vectorIdSaIdEEED2Ev
	.section	.text._ZNSt6vectorIS_IdSaIdEESaIS1_EEC2EmRKS2_,"axG",@progbits,_ZNSt6vectorIS_IdSaIdEESaIS1_EEC5EmRKS2_,comdat
	.align 2
	.weak	_ZNSt6vectorIS_IdSaIdEESaIS1_EEC2EmRKS2_
	.type	_ZNSt6vectorIS_IdSaIdEESaIS1_EEC2EmRKS2_, @function
_ZNSt6vectorIS_IdSaIdEESaIS1_EEC2EmRKS2_:
.LFB3980:
	.cfi_startproc
	.cfi_personality 0x9b,DW.ref.__gxx_personality_v0
	.cfi_lsda 0x1b,.LLSDA3980
	pushq	%rbp
	.cfi_def_cfa_offset 16
	.cfi_offset 6, -16
	movq	%rsp, %rbp
	.cfi_def_cfa_register 6
	pushq	%rbx
	subq	$40, %rsp
	.cfi_offset 3, -24
	movq	%rdi, -24(%rbp)
	movq	%rsi, -32(%rbp)
	movq	%rdx, -40(%rbp)
	movq	-24(%rbp), %rax
	movq	-40(%rbp), %rdx
	movq	-32(%rbp), %rcx
	movq	%rcx, %rsi
	movq	%rax, %rdi
.LEHB175:
	call	_ZNSt12_Vector_baseISt6vectorIdSaIdEESaIS2_EEC2EmRKS3_
.LEHE175:
	movq	-32(%rbp), %rdx
	movq	-24(%rbp), %rax
	movq	%rdx, %rsi
	movq	%rax, %rdi
.LEHB176:
	call	_ZNSt6vectorIS_IdSaIdEESaIS1_EE21_M_default_initializeEm
.LEHE176:
	jmp	.L578
.L577:
	movq	%rax, %rbx
	movq	-24(%rbp), %rax
	movq	%rax, %rdi
	call	_ZNSt12_Vector_baseISt6vectorIdSaIdEESaIS2_EED2Ev
	movq	%rbx, %rax
	movq	%rax, %rdi
.LEHB177:
	call	_Unwind_Resume@PLT
.LEHE177:
.L578:
	addq	$40, %rsp
	popq	%rbx
	popq	%rbp
	.cfi_def_cfa 7, 8
	ret
	.cfi_endproc
.LFE3980:
	.section	.gcc_except_table
.LLSDA3980:
	.byte	0xff
	.byte	0xff
	.byte	0x1
	.uleb128 .LLSDACSE3980-.LLSDACSB3980
.LLSDACSB3980:
	.uleb128 .LEHB175-.LFB3980
	.uleb128 .LEHE175-.LEHB175
	.uleb128 0
	.uleb128 0
	.uleb128 .LEHB176-.LFB3980
	.uleb128 .LEHE176-.LEHB176
	.uleb128 .L577-.LFB3980
	.uleb128 0
	.uleb128 .LEHB177-.LFB3980
	.uleb128 .LEHE177-.LEHB177
	.uleb128 0
	.uleb128 0
.LLSDACSE3980:
	.section	.text._ZNSt6vectorIS_IdSaIdEESaIS1_EEC2EmRKS2_,"axG",@progbits,_ZNSt6vectorIS_IdSaIdEESaIS1_EEC5EmRKS2_,comdat
	.size	_ZNSt6vectorIS_IdSaIdEESaIS1_EEC2EmRKS2_, .-_ZNSt6vectorIS_IdSaIdEESaIS1_EEC2EmRKS2_
	.weak	_ZNSt6vectorIS_IdSaIdEESaIS1_EEC1EmRKS2_
	.set	_ZNSt6vectorIS_IdSaIdEESaIS1_EEC1EmRKS2_,_ZNSt6vectorIS_IdSaIdEESaIS1_EEC2EmRKS2_
	.section	.text._ZNSaImEC2Ev,"axG",@progbits,_ZNSaImEC5Ev,comdat
	.align 2
	.weak	_ZNSaImEC2Ev
	.type	_ZNSaImEC2Ev, @function
_ZNSaImEC2Ev:
.LFB3983:
	.cfi_startproc
	pushq	%rbp
	.cfi_def_cfa_offset 16
	.cfi_offset 6, -16
	movq	%rsp, %rbp
	.cfi_def_cfa_register 6
	subq	$16, %rsp
	movq	%rdi, -8(%rbp)
	movq	-8(%rbp), %rax
	movq	%rax, %rdi
	call	_ZN9__gnu_cxx13new_allocatorImEC2Ev
	nop
	leave
	.cfi_def_cfa 7, 8
	ret
	.cfi_endproc
.LFE3983:
	.size	_ZNSaImEC2Ev, .-_ZNSaImEC2Ev
	.weak	_ZNSaImEC1Ev
	.set	_ZNSaImEC1Ev,_ZNSaImEC2Ev
	.section	.text._ZNSaImED2Ev,"axG",@progbits,_ZNSaImED5Ev,comdat
	.align 2
	.weak	_ZNSaImED2Ev
	.type	_ZNSaImED2Ev, @function
_ZNSaImED2Ev:
.LFB3986:
	.cfi_startproc
	pushq	%rbp
	.cfi_def_cfa_offset 16
	.cfi_offset 6, -16
	movq	%rsp, %rbp
	.cfi_def_cfa_register 6
	subq	$16, %rsp
	movq	%rdi, -8(%rbp)
	movq	-8(%rbp), %rax
	movq	%rax, %rdi
	call	_ZN9__gnu_cxx13new_allocatorImED2Ev
	nop
	leave
	.cfi_def_cfa 7, 8
	ret
	.cfi_endproc
.LFE3986:
	.size	_ZNSaImED2Ev, .-_ZNSaImED2Ev
	.weak	_ZNSaImED1Ev
	.set	_ZNSaImED1Ev,_ZNSaImED2Ev
	.section	.text._ZNSt6vectorImSaImEEC2EmRKS0_,"axG",@progbits,_ZNSt6vectorImSaImEEC5EmRKS0_,comdat
	.align 2
	.weak	_ZNSt6vectorImSaImEEC2EmRKS0_
	.type	_ZNSt6vectorImSaImEEC2EmRKS0_, @function
_ZNSt6vectorImSaImEEC2EmRKS0_:
.LFB3989:
	.cfi_startproc
	.cfi_personality 0x9b,DW.ref.__gxx_personality_v0
	.cfi_lsda 0x1b,.LLSDA3989
	pushq	%rbp
	.cfi_def_cfa_offset 16
	.cfi_offset 6, -16
	movq	%rsp, %rbp
	.cfi_def_cfa_register 6
	pushq	%rbx
	subq	$40, %rsp
	.cfi_offset 3, -24
	movq	%rdi, -24(%rbp)
	movq	%rsi, -32(%rbp)
	movq	%rdx, -40(%rbp)
	movq	-24(%rbp), %rax
	movq	-40(%rbp), %rdx
	movq	-32(%rbp), %rcx
	movq	%rcx, %rsi
	movq	%rax, %rdi
.LEHB178:
	call	_ZNSt12_Vector_baseImSaImEEC2EmRKS0_
.LEHE178:
	movq	-32(%rbp), %rdx
	movq	-24(%rbp), %rax
	movq	%rdx, %rsi
	movq	%rax, %rdi
.LEHB179:
	call	_ZNSt6vectorImSaImEE21_M_default_initializeEm
.LEHE179:
	jmp	.L584
.L583:
	movq	%rax, %rbx
	movq	-24(%rbp), %rax
	movq	%rax, %rdi
	call	_ZNSt12_Vector_baseImSaImEED2Ev
	movq	%rbx, %rax
	movq	%rax, %rdi
.LEHB180:
	call	_Unwind_Resume@PLT
.LEHE180:
.L584:
	addq	$40, %rsp
	popq	%rbx
	popq	%rbp
	.cfi_def_cfa 7, 8
	ret
	.cfi_endproc
.LFE3989:
	.section	.gcc_except_table
.LLSDA3989:
	.byte	0xff
	.byte	0xff
	.byte	0x1
	.uleb128 .LLSDACSE3989-.LLSDACSB3989
.LLSDACSB3989:
	.uleb128 .LEHB178-.LFB3989
	.uleb128 .LEHE178-.LEHB178
	.uleb128 0
	.uleb128 0
	.uleb128 .LEHB179-.LFB3989
	.uleb128 .LEHE179-.LEHB179
	.uleb128 .L583-.LFB3989
	.uleb128 0
	.uleb128 .LEHB180-.LFB3989
	.uleb128 .LEHE180-.LEHB180
	.uleb128 0
	.uleb128 0
.LLSDACSE3989:
	.section	.text._ZNSt6vectorImSaImEEC2EmRKS0_,"axG",@progbits,_ZNSt6vectorImSaImEEC5EmRKS0_,comdat
	.size	_ZNSt6vectorImSaImEEC2EmRKS0_, .-_ZNSt6vectorImSaImEEC2EmRKS0_
	.weak	_ZNSt6vectorImSaImEEC1EmRKS0_
	.set	_ZNSt6vectorImSaImEEC1EmRKS0_,_ZNSt6vectorImSaImEEC2EmRKS0_
	.section	.text._ZNKSt8valarrayIdEixEm,"axG",@progbits,_ZNKSt8valarrayIdEixEm,comdat
	.align 2
	.weak	_ZNKSt8valarrayIdEixEm
	.type	_ZNKSt8valarrayIdEixEm, @function
_ZNKSt8valarrayIdEixEm:
.LFB3991:
	.cfi_startproc
	pushq	%rbp
	.cfi_def_cfa_offset 16
	.cfi_offset 6, -16
	movq	%rsp, %rbp
	.cfi_def_cfa_register 6
	movq	%rdi, -8(%rbp)
	movq	%rsi, -16(%rbp)
	movq	-8(%rbp), %rax
	movq	8(%rax), %rax
	movq	-16(%rbp), %rdx
	salq	$3, %rdx
	addq	%rdx, %rax
	popq	%rbp
	.cfi_def_cfa 7, 8
	ret
	.cfi_endproc
.LFE3991:
	.size	_ZNKSt8valarrayIdEixEm, .-_ZNKSt8valarrayIdEixEm
	.section	.text._ZNSt6vectorIdSaIdEE9push_backERKd,"axG",@progbits,_ZNSt6vectorIdSaIdEE9push_backERKd,comdat
	.align 2
	.weak	_ZNSt6vectorIdSaIdEE9push_backERKd
	.type	_ZNSt6vectorIdSaIdEE9push_backERKd, @function
_ZNSt6vectorIdSaIdEE9push_backERKd:
.LFB3992:
	.cfi_startproc
	pushq	%rbp
	.cfi_def_cfa_offset 16
	.cfi_offset 6, -16
	movq	%rsp, %rbp
	.cfi_def_cfa_register 6
	subq	$16, %rsp
	movq	%rdi, -8(%rbp)
	movq	%rsi, -16(%rbp)
	movq	-8(%rbp), %rax
	movq	8(%rax), %rdx
	movq	-8(%rbp), %rax
	movq	16(%rax), %rax
	cmpq	%rax, %rdx
	je	.L588
	movq	-8(%rbp), %rax
	movq	8(%rax), %rcx
	movq	-8(%rbp), %rax
	movq	-16(%rbp), %rdx
	movq	%rcx, %rsi
	movq	%rax, %rdi
	call	_ZNSt16allocator_traitsISaIdEE9constructIdJRKdEEEvRS0_PT_DpOT0_
	movq	-8(%rbp), %rax
	movq	8(%rax), %rax
	leaq	8(%rax), %rdx
	movq	-8(%rbp), %rax
	movq	%rdx, 8(%rax)
	jmp	.L590
.L588:
	movq	-8(%rbp), %rax
	movq	%rax, %rdi
	call	_ZNSt6vectorIdSaIdEE3endEv
	movq	%rax, %rcx
	movq	-16(%rbp), %rdx
	movq	-8(%rbp), %rax
	movq	%rcx, %rsi
	movq	%rax, %rdi
	call	_ZNSt6vectorIdSaIdEE17_M_realloc_insertIJRKdEEEvN9__gnu_cxx17__normal_iteratorIPdS1_EEDpOT_
.L590:
	nop
	leave
	.cfi_def_cfa 7, 8
	ret
	.cfi_endproc
.LFE3992:
	.size	_ZNSt6vectorIdSaIdEE9push_backERKd, .-_ZNSt6vectorIdSaIdEE9push_backERKd
	.section	.text._ZNSt8valarrayIdEC2Em,"axG",@progbits,_ZNSt8valarrayIdEC5Em,comdat
	.align 2
	.weak	_ZNSt8valarrayIdEC2Em
	.type	_ZNSt8valarrayIdEC2Em, @function
_ZNSt8valarrayIdEC2Em:
.LFB3994:
	.cfi_startproc
	pushq	%rbp
	.cfi_def_cfa_offset 16
	.cfi_offset 6, -16
	movq	%rsp, %rbp
	.cfi_def_cfa_register 6
	subq	$16, %rsp
	movq	%rdi, -8(%rbp)
	movq	%rsi, -16(%rbp)
	movq	-8(%rbp), %rax
	movq	-16(%rbp), %rdx
	movq	%rdx, (%rax)
	movq	-16(%rbp), %rax
	movq	%rax, %rdi
	call	_ZSt22__valarray_get_storageIdErPT_m
	movq	%rax, %rdx
	movq	-8(%rbp), %rax
	movq	%rdx, 8(%rax)
	movq	-8(%rbp), %rax
	movq	8(%rax), %rax
	movq	-16(%rbp), %rdx
	salq	$3, %rdx
	addq	%rax, %rdx
	movq	-8(%rbp), %rax
	movq	8(%rax), %rax
	movq	%rdx, %rsi
	movq	%rax, %rdi
	call	_ZSt28__valarray_default_constructIdEvPT_S1_
	nop
	leave
	.cfi_def_cfa 7, 8
	ret
	.cfi_endproc
.LFE3994:
	.size	_ZNSt8valarrayIdEC2Em, .-_ZNSt8valarrayIdEC2Em
	.weak	_ZNSt8valarrayIdEC1Em
	.set	_ZNSt8valarrayIdEC1Em,_ZNSt8valarrayIdEC2Em
	.section	.text._ZNSt8valarrayIdEixEm,"axG",@progbits,_ZNSt8valarrayIdEixEm,comdat
	.align 2
	.weak	_ZNSt8valarrayIdEixEm
	.type	_ZNSt8valarrayIdEixEm, @function
_ZNSt8valarrayIdEixEm:
.LFB3996:
	.cfi_startproc
	pushq	%rbp
	.cfi_def_cfa_offset 16
	.cfi_offset 6, -16
	movq	%rsp, %rbp
	.cfi_def_cfa_register 6
	movq	%rdi, -8(%rbp)
	movq	%rsi, -16(%rbp)
	movq	-8(%rbp), %rax
	movq	8(%rax), %rax
	movq	-16(%rbp), %rdx
	salq	$3, %rdx
	addq	%rdx, %rax
	popq	%rbp
	.cfi_def_cfa 7, 8
	ret
	.cfi_endproc
.LFE3996:
	.size	_ZNSt8valarrayIdEixEm, .-_ZNSt8valarrayIdEixEm
	.section	.text._ZSt11__addressofIdEPT_RS0_,"axG",@progbits,_ZSt11__addressofIdEPT_RS0_,comdat
	.weak	_ZSt11__addressofIdEPT_RS0_
	.type	_ZSt11__addressofIdEPT_RS0_, @function
_ZSt11__addressofIdEPT_RS0_:
.LFB3997:
	.cfi_startproc
	pushq	%rbp
	.cfi_def_cfa_offset 16
	.cfi_offset 6, -16
	movq	%rsp, %rbp
	.cfi_def_cfa_register 6
	movq	%rdi, -8(%rbp)
	movq	-8(%rbp), %rax
	popq	%rbp
	.cfi_def_cfa 7, 8
	ret
	.cfi_endproc
.LFE3997:
	.size	_ZSt11__addressofIdEPT_RS0_, .-_ZSt11__addressofIdEPT_RS0_
	.section	.text._ZNSt12_Vector_baseISt6vectorIdSaIdEESaIS2_EE12_Vector_implD2Ev,"axG",@progbits,_ZNSt12_Vector_baseISt6vectorIdSaIdEESaIS2_EE12_Vector_implD5Ev,comdat
	.align 2
	.weak	_ZNSt12_Vector_baseISt6vectorIdSaIdEESaIS2_EE12_Vector_implD2Ev
	.type	_ZNSt12_Vector_baseISt6vectorIdSaIdEESaIS2_EE12_Vector_implD2Ev, @function
_ZNSt12_Vector_baseISt6vectorIdSaIdEESaIS2_EE12_Vector_implD2Ev:
.LFB4036:
	.cfi_startproc
	pushq	%rbp
	.cfi_def_cfa_offset 16
	.cfi_offset 6, -16
	movq	%rsp, %rbp
	.cfi_def_cfa_register 6
	subq	$16, %rsp
	movq	%rdi, -8(%rbp)
	movq	-8(%rbp), %rax
	movq	%rax, %rdi
	call	_ZNSaISt6vectorIdSaIdEEED2Ev
	nop
	leave
	.cfi_def_cfa 7, 8
	ret
	.cfi_endproc
.LFE4036:
	.size	_ZNSt12_Vector_baseISt6vectorIdSaIdEESaIS2_EE12_Vector_implD2Ev, .-_ZNSt12_Vector_baseISt6vectorIdSaIdEESaIS2_EE12_Vector_implD2Ev
	.weak	_ZNSt12_Vector_baseISt6vectorIdSaIdEESaIS2_EE12_Vector_implD1Ev
	.set	_ZNSt12_Vector_baseISt6vectorIdSaIdEESaIS2_EE12_Vector_implD1Ev,_ZNSt12_Vector_baseISt6vectorIdSaIdEESaIS2_EE12_Vector_implD2Ev
	.section	.text._ZNSt12_Vector_baseISt6vectorIdSaIdEESaIS2_EEC2Ev,"axG",@progbits,_ZNSt12_Vector_baseISt6vectorIdSaIdEESaIS2_EEC5Ev,comdat
	.align 2
	.weak	_ZNSt12_Vector_baseISt6vectorIdSaIdEESaIS2_EEC2Ev
	.type	_ZNSt12_Vector_baseISt6vectorIdSaIdEESaIS2_EEC2Ev, @function
_ZNSt12_Vector_baseISt6vectorIdSaIdEESaIS2_EEC2Ev:
.LFB4038:
	.cfi_startproc
	pushq	%rbp
	.cfi_def_cfa_offset 16
	.cfi_offset 6, -16
	movq	%rsp, %rbp
	.cfi_def_cfa_register 6
	subq	$16, %rsp
	movq	%rdi, -8(%rbp)
	movq	-8(%rbp), %rax
	movq	%rax, %rdi
	call	_ZNSt12_Vector_baseISt6vectorIdSaIdEESaIS2_EE12_Vector_implC1Ev
	nop
	leave
	.cfi_def_cfa 7, 8
	ret
	.cfi_endproc
.LFE4038:
	.size	_ZNSt12_Vector_baseISt6vectorIdSaIdEESaIS2_EEC2Ev, .-_ZNSt12_Vector_baseISt6vectorIdSaIdEESaIS2_EEC2Ev
	.weak	_ZNSt12_Vector_baseISt6vectorIdSaIdEESaIS2_EEC1Ev
	.set	_ZNSt12_Vector_baseISt6vectorIdSaIdEESaIS2_EEC1Ev,_ZNSt12_Vector_baseISt6vectorIdSaIdEESaIS2_EEC2Ev
	.section	.text._ZNSt12_Vector_baseISt6vectorIdSaIdEESaIS2_EED2Ev,"axG",@progbits,_ZNSt12_Vector_baseISt6vectorIdSaIdEESaIS2_EED5Ev,comdat
	.align 2
	.weak	_ZNSt12_Vector_baseISt6vectorIdSaIdEESaIS2_EED2Ev
	.type	_ZNSt12_Vector_baseISt6vectorIdSaIdEESaIS2_EED2Ev, @function
_ZNSt12_Vector_baseISt6vectorIdSaIdEESaIS2_EED2Ev:
.LFB4041:
	.cfi_startproc
	.cfi_personality 0x9b,DW.ref.__gxx_personality_v0
	.cfi_lsda 0x1b,.LLSDA4041
	pushq	%rbp
	.cfi_def_cfa_offset 16
	.cfi_offset 6, -16
	movq	%rsp, %rbp
	.cfi_def_cfa_register 6
	subq	$16, %rsp
	movq	%rdi, -8(%rbp)
	movq	-8(%rbp), %rax
	movq	16(%rax), %rax
	movq	%rax, %rdx
	movq	-8(%rbp), %rax
	movq	(%rax), %rax
	subq	%rax, %rdx
	movq	%rdx, %rax
	sarq	$3, %rax
	movq	%rax, %rdx
	movabsq	$-6148914691236517205, %rax
	imulq	%rdx, %rax
	movq	%rax, %rdx
	movq	-8(%rbp), %rax
	movq	(%rax), %rcx
	movq	-8(%rbp), %rax
	movq	%rcx, %rsi
	movq	%rax, %rdi
	call	_ZNSt12_Vector_baseISt6vectorIdSaIdEESaIS2_EE13_M_deallocateEPS2_m
	movq	-8(%rbp), %rax
	movq	%rax, %rdi
	call	_ZNSt12_Vector_baseISt6vectorIdSaIdEESaIS2_EE12_Vector_implD1Ev
	nop
	leave
	.cfi_def_cfa 7, 8
	ret
	.cfi_endproc
.LFE4041:
	.section	.gcc_except_table
.LLSDA4041:
	.byte	0xff
	.byte	0xff
	.byte	0x1
	.uleb128 .LLSDACSE4041-.LLSDACSB4041
.LLSDACSB4041:
.LLSDACSE4041:
	.section	.text._ZNSt12_Vector_baseISt6vectorIdSaIdEESaIS2_EED2Ev,"axG",@progbits,_ZNSt12_Vector_baseISt6vectorIdSaIdEESaIS2_EED5Ev,comdat
	.size	_ZNSt12_Vector_baseISt6vectorIdSaIdEESaIS2_EED2Ev, .-_ZNSt12_Vector_baseISt6vectorIdSaIdEESaIS2_EED2Ev
	.weak	_ZNSt12_Vector_baseISt6vectorIdSaIdEESaIS2_EED1Ev
	.set	_ZNSt12_Vector_baseISt6vectorIdSaIdEESaIS2_EED1Ev,_ZNSt12_Vector_baseISt6vectorIdSaIdEESaIS2_EED2Ev
	.section	.text._ZNSt12_Vector_baseISt6vectorIdSaIdEESaIS2_EE19_M_get_Tp_allocatorEv,"axG",@progbits,_ZNSt12_Vector_baseISt6vectorIdSaIdEESaIS2_EE19_M_get_Tp_allocatorEv,comdat
	.align 2
	.weak	_ZNSt12_Vector_baseISt6vectorIdSaIdEESaIS2_EE19_M_get_Tp_allocatorEv
	.type	_ZNSt12_Vector_baseISt6vectorIdSaIdEESaIS2_EE19_M_get_Tp_allocatorEv, @function
_ZNSt12_Vector_baseISt6vectorIdSaIdEESaIS2_EE19_M_get_Tp_allocatorEv:
.LFB4043:
	.cfi_startproc
	pushq	%rbp
	.cfi_def_cfa_offset 16
	.cfi_offset 6, -16
	movq	%rsp, %rbp
	.cfi_def_cfa_register 6
	movq	%rdi, -8(%rbp)
	movq	-8(%rbp), %rax
	popq	%rbp
	.cfi_def_cfa 7, 8
	ret
	.cfi_endproc
.LFE4043:
	.size	_ZNSt12_Vector_baseISt6vectorIdSaIdEESaIS2_EE19_M_get_Tp_allocatorEv, .-_ZNSt12_Vector_baseISt6vectorIdSaIdEESaIS2_EE19_M_get_Tp_allocatorEv
	.section	.text._ZSt8_DestroyIPSt6vectorIdSaIdEES2_EvT_S4_RSaIT0_E,"axG",@progbits,_ZSt8_DestroyIPSt6vectorIdSaIdEES2_EvT_S4_RSaIT0_E,comdat
	.weak	_ZSt8_DestroyIPSt6vectorIdSaIdEES2_EvT_S4_RSaIT0_E
	.type	_ZSt8_DestroyIPSt6vectorIdSaIdEES2_EvT_S4_RSaIT0_E, @function
_ZSt8_DestroyIPSt6vectorIdSaIdEES2_EvT_S4_RSaIT0_E:
.LFB4044:
	.cfi_startproc
	pushq	%rbp
	.cfi_def_cfa_offset 16
	.cfi_offset 6, -16
	movq	%rsp, %rbp
	.cfi_def_cfa_register 6
	subq	$32, %rsp
	movq	%rdi, -8(%rbp)
	movq	%rsi, -16(%rbp)
	movq	%rdx, -24(%rbp)
	movq	-16(%rbp), %rdx
	movq	-8(%rbp), %rax
	movq	%rdx, %rsi
	movq	%rax, %rdi
	call	_ZSt8_DestroyIPSt6vectorIdSaIdEEEvT_S4_
	nop
	leave
	.cfi_def_cfa 7, 8
	ret
	.cfi_endproc
.LFE4044:
	.size	_ZSt8_DestroyIPSt6vectorIdSaIdEES2_EvT_S4_RSaIT0_E, .-_ZSt8_DestroyIPSt6vectorIdSaIdEES2_EvT_S4_RSaIT0_E
	.section	.text._ZNSt12_Vector_baseImSaImEE12_Vector_implD2Ev,"axG",@progbits,_ZNSt12_Vector_baseImSaImEE12_Vector_implD5Ev,comdat
	.align 2
	.weak	_ZNSt12_Vector_baseImSaImEE12_Vector_implD2Ev
	.type	_ZNSt12_Vector_baseImSaImEE12_Vector_implD2Ev, @function
_ZNSt12_Vector_baseImSaImEE12_Vector_implD2Ev:
.LFB4047:
	.cfi_startproc
	pushq	%rbp
	.cfi_def_cfa_offset 16
	.cfi_offset 6, -16
	movq	%rsp, %rbp
	.cfi_def_cfa_register 6
	subq	$16, %rsp
	movq	%rdi, -8(%rbp)
	movq	-8(%rbp), %rax
	movq	%rax, %rdi
	call	_ZNSaImED2Ev
	nop
	leave
	.cfi_def_cfa 7, 8
	ret
	.cfi_endproc
.LFE4047:
	.size	_ZNSt12_Vector_baseImSaImEE12_Vector_implD2Ev, .-_ZNSt12_Vector_baseImSaImEE12_Vector_implD2Ev
	.weak	_ZNSt12_Vector_baseImSaImEE12_Vector_implD1Ev
	.set	_ZNSt12_Vector_baseImSaImEE12_Vector_implD1Ev,_ZNSt12_Vector_baseImSaImEE12_Vector_implD2Ev
	.section	.text._ZNSt12_Vector_baseImSaImEEC2Ev,"axG",@progbits,_ZNSt12_Vector_baseImSaImEEC5Ev,comdat
	.align 2
	.weak	_ZNSt12_Vector_baseImSaImEEC2Ev
	.type	_ZNSt12_Vector_baseImSaImEEC2Ev, @function
_ZNSt12_Vector_baseImSaImEEC2Ev:
.LFB4049:
	.cfi_startproc
	pushq	%rbp
	.cfi_def_cfa_offset 16
	.cfi_offset 6, -16
	movq	%rsp, %rbp
	.cfi_def_cfa_register 6
	subq	$16, %rsp
	movq	%rdi, -8(%rbp)
	movq	-8(%rbp), %rax
	movq	%rax, %rdi
	call	_ZNSt12_Vector_baseImSaImEE12_Vector_implC1Ev
	nop
	leave
	.cfi_def_cfa 7, 8
	ret
	.cfi_endproc
.LFE4049:
	.size	_ZNSt12_Vector_baseImSaImEEC2Ev, .-_ZNSt12_Vector_baseImSaImEEC2Ev
	.weak	_ZNSt12_Vector_baseImSaImEEC1Ev
	.set	_ZNSt12_Vector_baseImSaImEEC1Ev,_ZNSt12_Vector_baseImSaImEEC2Ev
	.section	.text._ZNSt12_Vector_baseImSaImEED2Ev,"axG",@progbits,_ZNSt12_Vector_baseImSaImEED5Ev,comdat
	.align 2
	.weak	_ZNSt12_Vector_baseImSaImEED2Ev
	.type	_ZNSt12_Vector_baseImSaImEED2Ev, @function
_ZNSt12_Vector_baseImSaImEED2Ev:
.LFB4052:
	.cfi_startproc
	.cfi_personality 0x9b,DW.ref.__gxx_personality_v0
	.cfi_lsda 0x1b,.LLSDA4052
	pushq	%rbp
	.cfi_def_cfa_offset 16
	.cfi_offset 6, -16
	movq	%rsp, %rbp
	.cfi_def_cfa_register 6
	subq	$16, %rsp
	movq	%rdi, -8(%rbp)
	movq	-8(%rbp), %rax
	movq	16(%rax), %rax
	movq	%rax, %rdx
	movq	-8(%rbp), %rax
	movq	(%rax), %rax
	subq	%rax, %rdx
	movq	%rdx, %rax
	sarq	$3, %rax
	movq	%rax, %rdx
	movq	-8(%rbp), %rax
	movq	(%rax), %rcx
	movq	-8(%rbp), %rax
	movq	%rcx, %rsi
	movq	%rax, %rdi
	call	_ZNSt12_Vector_baseImSaImEE13_M_deallocateEPmm
	movq	-8(%rbp), %rax
	movq	%rax, %rdi
	call	_ZNSt12_Vector_baseImSaImEE12_Vector_implD1Ev
	nop
	leave
	.cfi_def_cfa 7, 8
	ret
	.cfi_endproc
.LFE4052:
	.section	.gcc_except_table
.LLSDA4052:
	.byte	0xff
	.byte	0xff
	.byte	0x1
	.uleb128 .LLSDACSE4052-.LLSDACSB4052
.LLSDACSB4052:
.LLSDACSE4052:
	.section	.text._ZNSt12_Vector_baseImSaImEED2Ev,"axG",@progbits,_ZNSt12_Vector_baseImSaImEED5Ev,comdat
	.size	_ZNSt12_Vector_baseImSaImEED2Ev, .-_ZNSt12_Vector_baseImSaImEED2Ev
	.weak	_ZNSt12_Vector_baseImSaImEED1Ev
	.set	_ZNSt12_Vector_baseImSaImEED1Ev,_ZNSt12_Vector_baseImSaImEED2Ev
	.section	.text._ZNSt12_Vector_baseImSaImEE19_M_get_Tp_allocatorEv,"axG",@progbits,_ZNSt12_Vector_baseImSaImEE19_M_get_Tp_allocatorEv,comdat
	.align 2
	.weak	_ZNSt12_Vector_baseImSaImEE19_M_get_Tp_allocatorEv
	.type	_ZNSt12_Vector_baseImSaImEE19_M_get_Tp_allocatorEv, @function
_ZNSt12_Vector_baseImSaImEE19_M_get_Tp_allocatorEv:
.LFB4054:
	.cfi_startproc
	pushq	%rbp
	.cfi_def_cfa_offset 16
	.cfi_offset 6, -16
	movq	%rsp, %rbp
	.cfi_def_cfa_register 6
	movq	%rdi, -8(%rbp)
	movq	-8(%rbp), %rax
	popq	%rbp
	.cfi_def_cfa 7, 8
	ret
	.cfi_endproc
.LFE4054:
	.size	_ZNSt12_Vector_baseImSaImEE19_M_get_Tp_allocatorEv, .-_ZNSt12_Vector_baseImSaImEE19_M_get_Tp_allocatorEv
	.section	.text._ZSt8_DestroyIPmmEvT_S1_RSaIT0_E,"axG",@progbits,_ZSt8_DestroyIPmmEvT_S1_RSaIT0_E,comdat
	.weak	_ZSt8_DestroyIPmmEvT_S1_RSaIT0_E
	.type	_ZSt8_DestroyIPmmEvT_S1_RSaIT0_E, @function
_ZSt8_DestroyIPmmEvT_S1_RSaIT0_E:
.LFB4055:
	.cfi_startproc
	pushq	%rbp
	.cfi_def_cfa_offset 16
	.cfi_offset 6, -16
	movq	%rsp, %rbp
	.cfi_def_cfa_register 6
	subq	$32, %rsp
	movq	%rdi, -8(%rbp)
	movq	%rsi, -16(%rbp)
	movq	%rdx, -24(%rbp)
	movq	-16(%rbp), %rdx
	movq	-8(%rbp), %rax
	movq	%rdx, %rsi
	movq	%rax, %rdi
	call	_ZSt8_DestroyIPmEvT_S1_
	nop
	leave
	.cfi_def_cfa 7, 8
	ret
	.cfi_endproc
.LFE4055:
	.size	_ZSt8_DestroyIPmmEvT_S1_RSaIT0_E, .-_ZSt8_DestroyIPmmEvT_S1_RSaIT0_E
	.section	.text._ZNSt6vectorIdSaIdEEC2Ev,"axG",@progbits,_ZNSt6vectorIdSaIdEEC5Ev,comdat
	.align 2
	.weak	_ZNSt6vectorIdSaIdEEC2Ev
	.type	_ZNSt6vectorIdSaIdEEC2Ev, @function
_ZNSt6vectorIdSaIdEEC2Ev:
.LFB4088:
	.cfi_startproc
	.cfi_personality 0x9b,DW.ref.__gxx_personality_v0
	.cfi_lsda 0x1b,.LLSDA4088
	pushq	%rbp
	.cfi_def_cfa_offset 16
	.cfi_offset 6, -16
	movq	%rsp, %rbp
	.cfi_def_cfa_register 6
	subq	$16, %rsp
	movq	%rdi, -8(%rbp)
	movq	-8(%rbp), %rax
	movq	%rax, %rdi
	call	_ZNSt12_Vector_baseIdSaIdEEC2Ev
	nop
	leave
	.cfi_def_cfa 7, 8
	ret
	.cfi_endproc
.LFE4088:
	.section	.gcc_except_table
.LLSDA4088:
	.byte	0xff
	.byte	0xff
	.byte	0x1
	.uleb128 .LLSDACSE4088-.LLSDACSB4088
.LLSDACSB4088:
.LLSDACSE4088:
	.section	.text._ZNSt6vectorIdSaIdEEC2Ev,"axG",@progbits,_ZNSt6vectorIdSaIdEEC5Ev,comdat
	.size	_ZNSt6vectorIdSaIdEEC2Ev, .-_ZNSt6vectorIdSaIdEEC2Ev
	.weak	_ZNSt6vectorIdSaIdEEC1Ev
	.set	_ZNSt6vectorIdSaIdEEC1Ev,_ZNSt6vectorIdSaIdEEC2Ev
	.section	.text._ZNSt12_Vector_baseIdSaIdEE12_Vector_implD2Ev,"axG",@progbits,_ZNSt12_Vector_baseIdSaIdEE12_Vector_implD5Ev,comdat
	.align 2
	.weak	_ZNSt12_Vector_baseIdSaIdEE12_Vector_implD2Ev
	.type	_ZNSt12_Vector_baseIdSaIdEE12_Vector_implD2Ev, @function
_ZNSt12_Vector_baseIdSaIdEE12_Vector_implD2Ev:
.LFB4093:
	.cfi_startproc
	pushq	%rbp
	.cfi_def_cfa_offset 16
	.cfi_offset 6, -16
	movq	%rsp, %rbp
	.cfi_def_cfa_register 6
	subq	$16, %rsp
	movq	%rdi, -8(%rbp)
	movq	-8(%rbp), %rax
	movq	%rax, %rdi
	call	_ZNSaIdED2Ev
	nop
	leave
	.cfi_def_cfa 7, 8
	ret
	.cfi_endproc
.LFE4093:
	.size	_ZNSt12_Vector_baseIdSaIdEE12_Vector_implD2Ev, .-_ZNSt12_Vector_baseIdSaIdEE12_Vector_implD2Ev
	.weak	_ZNSt12_Vector_baseIdSaIdEE12_Vector_implD1Ev
	.set	_ZNSt12_Vector_baseIdSaIdEE12_Vector_implD1Ev,_ZNSt12_Vector_baseIdSaIdEE12_Vector_implD2Ev
	.section	.text._ZNSt12_Vector_baseIdSaIdEED2Ev,"axG",@progbits,_ZNSt12_Vector_baseIdSaIdEED5Ev,comdat
	.align 2
	.weak	_ZNSt12_Vector_baseIdSaIdEED2Ev
	.type	_ZNSt12_Vector_baseIdSaIdEED2Ev, @function
_ZNSt12_Vector_baseIdSaIdEED2Ev:
.LFB4095:
	.cfi_startproc
	.cfi_personality 0x9b,DW.ref.__gxx_personality_v0
	.cfi_lsda 0x1b,.LLSDA4095
	pushq	%rbp
	.cfi_def_cfa_offset 16
	.cfi_offset 6, -16
	movq	%rsp, %rbp
	.cfi_def_cfa_register 6
	subq	$16, %rsp
	movq	%rdi, -8(%rbp)
	movq	-8(%rbp), %rax
	movq	16(%rax), %rax
	movq	%rax, %rdx
	movq	-8(%rbp), %rax
	movq	(%rax), %rax
	subq	%rax, %rdx
	movq	%rdx, %rax
	sarq	$3, %rax
	movq	%rax, %rdx
	movq	-8(%rbp), %rax
	movq	(%rax), %rcx
	movq	-8(%rbp), %rax
	movq	%rcx, %rsi
	movq	%rax, %rdi
	call	_ZNSt12_Vector_baseIdSaIdEE13_M_deallocateEPdm
	movq	-8(%rbp), %rax
	movq	%rax, %rdi
	call	_ZNSt12_Vector_baseIdSaIdEE12_Vector_implD1Ev
	nop
	leave
	.cfi_def_cfa 7, 8
	ret
	.cfi_endproc
.LFE4095:
	.section	.gcc_except_table
.LLSDA4095:
	.byte	0xff
	.byte	0xff
	.byte	0x1
	.uleb128 .LLSDACSE4095-.LLSDACSB4095
.LLSDACSB4095:
.LLSDACSE4095:
	.section	.text._ZNSt12_Vector_baseIdSaIdEED2Ev,"axG",@progbits,_ZNSt12_Vector_baseIdSaIdEED5Ev,comdat
	.size	_ZNSt12_Vector_baseIdSaIdEED2Ev, .-_ZNSt12_Vector_baseIdSaIdEED2Ev
	.weak	_ZNSt12_Vector_baseIdSaIdEED1Ev
	.set	_ZNSt12_Vector_baseIdSaIdEED1Ev,_ZNSt12_Vector_baseIdSaIdEED2Ev
	.section	.text._ZNSt12_Vector_baseIdSaIdEE19_M_get_Tp_allocatorEv,"axG",@progbits,_ZNSt12_Vector_baseIdSaIdEE19_M_get_Tp_allocatorEv,comdat
	.align 2
	.weak	_ZNSt12_Vector_baseIdSaIdEE19_M_get_Tp_allocatorEv
	.type	_ZNSt12_Vector_baseIdSaIdEE19_M_get_Tp_allocatorEv, @function
_ZNSt12_Vector_baseIdSaIdEE19_M_get_Tp_allocatorEv:
.LFB4097:
	.cfi_startproc
	pushq	%rbp
	.cfi_def_cfa_offset 16
	.cfi_offset 6, -16
	movq	%rsp, %rbp
	.cfi_def_cfa_register 6
	movq	%rdi, -8(%rbp)
	movq	-8(%rbp), %rax
	popq	%rbp
	.cfi_def_cfa 7, 8
	ret
	.cfi_endproc
.LFE4097:
	.size	_ZNSt12_Vector_baseIdSaIdEE19_M_get_Tp_allocatorEv, .-_ZNSt12_Vector_baseIdSaIdEE19_M_get_Tp_allocatorEv
	.section	.text._ZSt8_DestroyIPddEvT_S1_RSaIT0_E,"axG",@progbits,_ZSt8_DestroyIPddEvT_S1_RSaIT0_E,comdat
	.weak	_ZSt8_DestroyIPddEvT_S1_RSaIT0_E
	.type	_ZSt8_DestroyIPddEvT_S1_RSaIT0_E, @function
_ZSt8_DestroyIPddEvT_S1_RSaIT0_E:
.LFB4098:
	.cfi_startproc
	pushq	%rbp
	.cfi_def_cfa_offset 16
	.cfi_offset 6, -16
	movq	%rsp, %rbp
	.cfi_def_cfa_register 6
	subq	$32, %rsp
	movq	%rdi, -8(%rbp)
	movq	%rsi, -16(%rbp)
	movq	%rdx, -24(%rbp)
	movq	-16(%rbp), %rdx
	movq	-8(%rbp), %rax
	movq	%rdx, %rsi
	movq	%rax, %rdi
	call	_ZSt8_DestroyIPdEvT_S1_
	nop
	leave
	.cfi_def_cfa 7, 8
	ret
	.cfi_endproc
.LFE4098:
	.size	_ZSt8_DestroyIPddEvT_S1_RSaIT0_E, .-_ZSt8_DestroyIPddEvT_S1_RSaIT0_E
	.section	.text._ZSt4moveIRSt6vectorIdSaIdEEEONSt16remove_referenceIT_E4typeEOS5_,"axG",@progbits,_ZSt4moveIRSt6vectorIdSaIdEEEONSt16remove_referenceIT_E4typeEOS5_,comdat
	.weak	_ZSt4moveIRSt6vectorIdSaIdEEEONSt16remove_referenceIT_E4typeEOS5_
	.type	_ZSt4moveIRSt6vectorIdSaIdEEEONSt16remove_referenceIT_E4typeEOS5_, @function
_ZSt4moveIRSt6vectorIdSaIdEEEONSt16remove_referenceIT_E4typeEOS5_:
.LFB4099:
	.cfi_startproc
	pushq	%rbp
	.cfi_def_cfa_offset 16
	.cfi_offset 6, -16
	movq	%rsp, %rbp
	.cfi_def_cfa_register 6
	movq	%rdi, -8(%rbp)
	movq	-8(%rbp), %rax
	popq	%rbp
	.cfi_def_cfa 7, 8
	ret
	.cfi_endproc
.LFE4099:
	.size	_ZSt4moveIRSt6vectorIdSaIdEEEONSt16remove_referenceIT_E4typeEOS5_, .-_ZSt4moveIRSt6vectorIdSaIdEEEONSt16remove_referenceIT_E4typeEOS5_
	.section	.text._ZNSt12_Vector_baseIdSaIdEEC2EOS1_,"axG",@progbits,_ZNSt12_Vector_baseIdSaIdEEC5EOS1_,comdat
	.align 2
	.weak	_ZNSt12_Vector_baseIdSaIdEEC2EOS1_
	.type	_ZNSt12_Vector_baseIdSaIdEEC2EOS1_, @function
_ZNSt12_Vector_baseIdSaIdEEC2EOS1_:
.LFB4101:
	.cfi_startproc
	pushq	%rbp
	.cfi_def_cfa_offset 16
	.cfi_offset 6, -16
	movq	%rsp, %rbp
	.cfi_def_cfa_register 6
	pushq	%rbx
	subq	$24, %rsp
	.cfi_offset 3, -24
	movq	%rdi, -24(%rbp)
	movq	%rsi, -32(%rbp)
	movq	-24(%rbp), %rbx
	movq	-32(%rbp), %rax
	movq	%rax, %rdi
	call	_ZNSt12_Vector_baseIdSaIdEE19_M_get_Tp_allocatorEv
	movq	%rax, %rdi
	call	_ZSt4moveIRSaIdEEONSt16remove_referenceIT_E4typeEOS3_
	movq	%rax, %rsi
	movq	%rbx, %rdi
	call	_ZNSt12_Vector_baseIdSaIdEE12_Vector_implC1EOS0_
	movq	-24(%rbp), %rax
	movq	-32(%rbp), %rdx
	movq	%rdx, %rsi
	movq	%rax, %rdi
	call	_ZNSt12_Vector_baseIdSaIdEE12_Vector_impl12_M_swap_dataERS2_
	nop
	addq	$24, %rsp
	popq	%rbx
	popq	%rbp
	.cfi_def_cfa 7, 8
	ret
	.cfi_endproc
.LFE4101:
	.size	_ZNSt12_Vector_baseIdSaIdEEC2EOS1_, .-_ZNSt12_Vector_baseIdSaIdEEC2EOS1_
	.weak	_ZNSt12_Vector_baseIdSaIdEEC1EOS1_
	.set	_ZNSt12_Vector_baseIdSaIdEEC1EOS1_,_ZNSt12_Vector_baseIdSaIdEEC2EOS1_
	.section	.text._ZNSt16allocator_traitsISaISt6vectorIdSaIdEEEE9constructIS2_JRKS2_EEEvRS3_PT_DpOT0_,"axG",@progbits,_ZNSt16allocator_traitsISaISt6vectorIdSaIdEEEE9constructIS2_JRKS2_EEEvRS3_PT_DpOT0_,comdat
	.weak	_ZNSt16allocator_traitsISaISt6vectorIdSaIdEEEE9constructIS2_JRKS2_EEEvRS3_PT_DpOT0_
	.type	_ZNSt16allocator_traitsISaISt6vectorIdSaIdEEEE9constructIS2_JRKS2_EEEvRS3_PT_DpOT0_, @function
_ZNSt16allocator_traitsISaISt6vectorIdSaIdEEEE9constructIS2_JRKS2_EEEvRS3_PT_DpOT0_:
.LFB4103:
	.cfi_startproc
	pushq	%rbp
	.cfi_def_cfa_offset 16
	.cfi_offset 6, -16
	movq	%rsp, %rbp
	.cfi_def_cfa_register 6
	subq	$32, %rsp
	movq	%rdi, -8(%rbp)
	movq	%rsi, -16(%rbp)
	movq	%rdx, -24(%rbp)
	movq	-24(%rbp), %rax
	movq	%rax, %rdi
	call	_ZSt7forwardIRKSt6vectorIdSaIdEEEOT_RNSt16remove_referenceIS5_E4typeE
	movq	%rax, %rdx
	movq	-16(%rbp), %rcx
	movq	-8(%rbp), %rax
	movq	%rcx, %rsi
	movq	%rax, %rdi
	call	_ZN9__gnu_cxx13new_allocatorISt6vectorIdSaIdEEE9constructIS3_JRKS3_EEEvPT_DpOT0_
	nop
	leave
	.cfi_def_cfa 7, 8
	ret
	.cfi_endproc
.LFE4103:
	.size	_ZNSt16allocator_traitsISaISt6vectorIdSaIdEEEE9constructIS2_JRKS2_EEEvRS3_PT_DpOT0_, .-_ZNSt16allocator_traitsISaISt6vectorIdSaIdEEEE9constructIS2_JRKS2_EEEvRS3_PT_DpOT0_
	.section	.rodata
.LC38:
	.string	"vector::_M_realloc_insert"
	.section	.text._ZNSt6vectorIS_IdSaIdEESaIS1_EE17_M_realloc_insertIJRKS1_EEEvN9__gnu_cxx17__normal_iteratorIPS1_S3_EEDpOT_,"axG",@progbits,_ZNSt6vectorIS_IdSaIdEESaIS1_EE17_M_realloc_insertIJRKS1_EEEvN9__gnu_cxx17__normal_iteratorIPS1_S3_EEDpOT_,comdat
	.align 2
	.weak	_ZNSt6vectorIS_IdSaIdEESaIS1_EE17_M_realloc_insertIJRKS1_EEEvN9__gnu_cxx17__normal_iteratorIPS1_S3_EEDpOT_
	.type	_ZNSt6vectorIS_IdSaIdEESaIS1_EE17_M_realloc_insertIJRKS1_EEEvN9__gnu_cxx17__normal_iteratorIPS1_S3_EEDpOT_, @function
_ZNSt6vectorIS_IdSaIdEESaIS1_EE17_M_realloc_insertIJRKS1_EEEvN9__gnu_cxx17__normal_iteratorIPS1_S3_EEDpOT_:
.LFB4104:
	.cfi_startproc
	.cfi_personality 0x9b,DW.ref.__gxx_personality_v0
	.cfi_lsda 0x1b,.LLSDA4104
	pushq	%rbp
	.cfi_def_cfa_offset 16
	.cfi_offset 6, -16
	movq	%rsp, %rbp
	.cfi_def_cfa_register 6
	pushq	%r12
	pushq	%rbx
	subq	$80, %rsp
	.cfi_offset 12, -24
	.cfi_offset 3, -32
	movq	%rdi, -72(%rbp)
	movq	%rsi, -80(%rbp)
	movq	%rdx, -88(%rbp)
	movq	-72(%rbp), %rax
	leaq	.LC38(%rip), %rdx
	movl	$1, %esi
	movq	%rax, %rdi
.LEHB181:
	call	_ZNKSt6vectorIS_IdSaIdEESaIS1_EE12_M_check_lenEmPKc
	movq	%rax, -32(%rbp)
	movq	-72(%rbp), %rax
	movq	%rax, %rdi
	call	_ZNSt6vectorIS_IdSaIdEESaIS1_EE5beginEv
	movq	%rax, -56(%rbp)
	leaq	-56(%rbp), %rdx
	leaq	-80(%rbp), %rax
	movq	%rdx, %rsi
	movq	%rax, %rdi
	call	_ZN9__gnu_cxxmiIPSt6vectorIdSaIdEES1_IS3_SaIS3_EEEENS_17__normal_iteratorIT_T0_E15difference_typeERKSA_SD_
	movq	%rax, -40(%rbp)
	movq	-72(%rbp), %rax
	movq	-32(%rbp), %rdx
	movq	%rdx, %rsi
	movq	%rax, %rdi
	call	_ZNSt12_Vector_baseISt6vectorIdSaIdEESaIS2_EE11_M_allocateEm
.LEHE181:
	movq	%rax, -48(%rbp)
	movq	-48(%rbp), %rax
	movq	%rax, -24(%rbp)
	movq	-88(%rbp), %rax
	movq	%rax, %rdi
	call	_ZSt7forwardIRKSt6vectorIdSaIdEEEOT_RNSt16remove_referenceIS5_E4typeE
	movq	%rax, %rsi
	movq	-40(%rbp), %rdx
	movq	%rdx, %rax
	addq	%rax, %rax
	addq	%rdx, %rax
	salq	$3, %rax
	movq	%rax, %rdx
	movq	-48(%rbp), %rax
	leaq	(%rdx,%rax), %rcx
	movq	-72(%rbp), %rax
	movq	%rsi, %rdx
	movq	%rcx, %rsi
	movq	%rax, %rdi
.LEHB182:
	call	_ZNSt16allocator_traitsISaISt6vectorIdSaIdEEEE9constructIS2_JRKS2_EEEvRS3_PT_DpOT0_
	movq	$0, -24(%rbp)
	movq	-72(%rbp), %rax
	movq	%rax, %rdi
	call	_ZNSt12_Vector_baseISt6vectorIdSaIdEESaIS2_EE19_M_get_Tp_allocatorEv
	movq	%rax, %rbx
	leaq	-80(%rbp), %rax
	movq	%rax, %rdi
	call	_ZNK9__gnu_cxx17__normal_iteratorIPSt6vectorIdSaIdEES1_IS3_SaIS3_EEE4baseEv
	movq	(%rax), %rsi
	movq	-72(%rbp), %rax
	movq	(%rax), %rax
	movq	-48(%rbp), %rdx
	movq	%rbx, %rcx
	movq	%rax, %rdi
	call	_ZSt34__uninitialized_move_if_noexcept_aIPSt6vectorIdSaIdEES3_SaIS2_EET0_T_S6_S5_RT1_
	movq	%rax, -24(%rbp)
	addq	$24, -24(%rbp)
	movq	-72(%rbp), %rax
	movq	%rax, %rdi
	call	_ZNSt12_Vector_baseISt6vectorIdSaIdEESaIS2_EE19_M_get_Tp_allocatorEv
	movq	%rax, %r12
	movq	-72(%rbp), %rax
	movq	8(%rax), %rbx
	leaq	-80(%rbp), %rax
	movq	%rax, %rdi
	call	_ZNK9__gnu_cxx17__normal_iteratorIPSt6vectorIdSaIdEES1_IS3_SaIS3_EEE4baseEv
	movq	(%rax), %rax
	movq	-24(%rbp), %rdx
	movq	%r12, %rcx
	movq	%rbx, %rsi
	movq	%rax, %rdi
	call	_ZSt34__uninitialized_move_if_noexcept_aIPSt6vectorIdSaIdEES3_SaIS2_EET0_T_S6_S5_RT1_
.LEHE182:
	movq	%rax, -24(%rbp)
	movq	-72(%rbp), %rax
	movq	%rax, %rdi
	call	_ZNSt12_Vector_baseISt6vectorIdSaIdEESaIS2_EE19_M_get_Tp_allocatorEv
	movq	%rax, %rdx
	movq	-72(%rbp), %rax
	movq	8(%rax), %rcx
	movq	-72(%rbp), %rax
	movq	(%rax), %rax
	movq	%rcx, %rsi
	movq	%rax, %rdi
.LEHB183:
	call	_ZSt8_DestroyIPSt6vectorIdSaIdEES2_EvT_S4_RSaIT0_E
	movq	-72(%rbp), %rax
	movq	-72(%rbp), %rdx
	movq	16(%rdx), %rdx
	movq	%rdx, %rcx
	movq	-72(%rbp), %rdx
	movq	(%rdx), %rdx
	subq	%rdx, %rcx
	movq	%rcx, %rdx
	movq	%rdx, %rcx
	sarq	$3, %rcx
	movabsq	$-6148914691236517205, %rdx
	imulq	%rcx, %rdx
	movq	%rdx, %rsi
	movq	-72(%rbp), %rdx
	movq	(%rdx), %rcx
	movq	%rsi, %rdx
	movq	%rcx, %rsi
	movq	%rax, %rdi
	call	_ZNSt12_Vector_baseISt6vectorIdSaIdEESaIS2_EE13_M_deallocateEPS2_m
.LEHE183:
	movq	-72(%rbp), %rax
	movq	-48(%rbp), %rdx
	movq	%rdx, (%rax)
	movq	-72(%rbp), %rax
	movq	-24(%rbp), %rdx
	movq	%rdx, 8(%rax)
	movq	-32(%rbp), %rdx
	movq	%rdx, %rax
	addq	%rax, %rax
	addq	%rdx, %rax
	salq	$3, %rax
	movq	%rax, %rdx
	movq	-48(%rbp), %rax
	addq	%rax, %rdx
	movq	-72(%rbp), %rax
	movq	%rdx, 16(%rax)
	jmp	.L625
.L623:
	movq	%rax, %rdi
	call	__cxa_begin_catch@PLT
	cmpq	$0, -24(%rbp)
	jne	.L620
	movq	-40(%rbp), %rdx
	movq	%rdx, %rax
	addq	%rax, %rax
	addq	%rdx, %rax
	salq	$3, %rax
	movq	%rax, %rdx
	movq	-48(%rbp), %rax
	addq	%rax, %rdx
	movq	-72(%rbp), %rax
	movq	%rdx, %rsi
	movq	%rax, %rdi
.LEHB184:
	call	_ZNSt16allocator_traitsISaISt6vectorIdSaIdEEEE7destroyIS2_EEvRS3_PT_
	jmp	.L621
.L620:
	movq	-72(%rbp), %rax
	movq	%rax, %rdi
	call	_ZNSt12_Vector_baseISt6vectorIdSaIdEESaIS2_EE19_M_get_Tp_allocatorEv
	movq	%rax, %rdx
	movq	-24(%rbp), %rcx
	movq	-48(%rbp), %rax
	movq	%rcx, %rsi
	movq	%rax, %rdi
	call	_ZSt8_DestroyIPSt6vectorIdSaIdEES2_EvT_S4_RSaIT0_E
.L621:
	movq	-72(%rbp), %rax
	movq	-32(%rbp), %rdx
	movq	-48(%rbp), %rcx
	movq	%rcx, %rsi
	movq	%rax, %rdi
	call	_ZNSt12_Vector_baseISt6vectorIdSaIdEESaIS2_EE13_M_deallocateEPS2_m
	call	__cxa_rethrow@PLT
.LEHE184:
.L624:
	movq	%rax, %rbx
	call	__cxa_end_catch@PLT
	movq	%rbx, %rax
	movq	%rax, %rdi
.LEHB185:
	call	_Unwind_Resume@PLT
.LEHE185:
.L625:
	addq	$80, %rsp
	popq	%rbx
	popq	%r12
	popq	%rbp
	.cfi_def_cfa 7, 8
	ret
	.cfi_endproc
.LFE4104:
	.section	.gcc_except_table
	.align 4
.LLSDA4104:
	.byte	0xff
	.byte	0x9b
	.uleb128 .LLSDATT4104-.LLSDATTD4104
.LLSDATTD4104:
	.byte	0x1
	.uleb128 .LLSDACSE4104-.LLSDACSB4104
.LLSDACSB4104:
	.uleb128 .LEHB181-.LFB4104
	.uleb128 .LEHE181-.LEHB181
	.uleb128 0
	.uleb128 0
	.uleb128 .LEHB182-.LFB4104
	.uleb128 .LEHE182-.LEHB182
	.uleb128 .L623-.LFB4104
	.uleb128 0x1
	.uleb128 .LEHB183-.LFB4104
	.uleb128 .LEHE183-.LEHB183
	.uleb128 0
	.uleb128 0
	.uleb128 .LEHB184-.LFB4104
	.uleb128 .LEHE184-.LEHB184
	.uleb128 .L624-.LFB4104
	.uleb128 0
	.uleb128 .LEHB185-.LFB4104
	.uleb128 .LEHE185-.LEHB185
	.uleb128 0
	.uleb128 0
.LLSDACSE4104:
	.byte	0x1
	.byte	0
	.align 4
	.long	0

.LLSDATT4104:
	.section	.text._ZNSt6vectorIS_IdSaIdEESaIS1_EE17_M_realloc_insertIJRKS1_EEEvN9__gnu_cxx17__normal_iteratorIPS1_S3_EEDpOT_,"axG",@progbits,_ZNSt6vectorIS_IdSaIdEESaIS1_EE17_M_realloc_insertIJRKS1_EEEvN9__gnu_cxx17__normal_iteratorIPS1_S3_EEDpOT_,comdat
	.size	_ZNSt6vectorIS_IdSaIdEESaIS1_EE17_M_realloc_insertIJRKS1_EEEvN9__gnu_cxx17__normal_iteratorIPS1_S3_EEDpOT_, .-_ZNSt6vectorIS_IdSaIdEESaIS1_EE17_M_realloc_insertIJRKS1_EEEvN9__gnu_cxx17__normal_iteratorIPS1_S3_EEDpOT_
	.section	.rodata
.LC39:
	.string	"vector::_M_default_append"
	.section	.text._ZNSt6vectorImSaImEE17_M_default_appendEm,"axG",@progbits,_ZNSt6vectorImSaImEE17_M_default_appendEm,comdat
	.align 2
	.weak	_ZNSt6vectorImSaImEE17_M_default_appendEm
	.type	_ZNSt6vectorImSaImEE17_M_default_appendEm, @function
_ZNSt6vectorImSaImEE17_M_default_appendEm:
.LFB4105:
	.cfi_startproc
	.cfi_personality 0x9b,DW.ref.__gxx_personality_v0
	.cfi_lsda 0x1b,.LLSDA4105
	pushq	%rbp
	.cfi_def_cfa_offset 16
	.cfi_offset 6, -16
	movq	%rsp, %rbp
	.cfi_def_cfa_register 6
	pushq	%rbx
	subq	$56, %rsp
	.cfi_offset 3, -24
	movq	%rdi, -56(%rbp)
	movq	%rsi, -64(%rbp)
	cmpq	$0, -64(%rbp)
	je	.L634
	movq	-56(%rbp), %rax
	movq	16(%rax), %rax
	movq	%rax, %rdx
	movq	-56(%rbp), %rax
	movq	8(%rax), %rax
	subq	%rax, %rdx
	movq	%rdx, %rax
	sarq	$3, %rax
	cmpq	%rax, -64(%rbp)
	ja	.L628
	movq	-56(%rbp), %rax
	movq	%rax, %rdi
	call	_ZNSt12_Vector_baseImSaImEE19_M_get_Tp_allocatorEv
	movq	%rax, %rdx
	movq	-56(%rbp), %rax
	movq	8(%rax), %rax
	movq	-64(%rbp), %rcx
	movq	%rcx, %rsi
	movq	%rax, %rdi
.LEHB186:
	call	_ZSt27__uninitialized_default_n_aIPmmmET_S1_T0_RSaIT1_E
	movq	%rax, %rdx
	movq	-56(%rbp), %rax
	movq	%rdx, 8(%rax)
	jmp	.L634
.L628:
	movq	-64(%rbp), %rcx
	movq	-56(%rbp), %rax
	leaq	.LC39(%rip), %rdx
	movq	%rcx, %rsi
	movq	%rax, %rdi
	call	_ZNKSt6vectorImSaImEE12_M_check_lenEmPKc
	movq	%rax, -32(%rbp)
	movq	-56(%rbp), %rax
	movq	%rax, %rdi
	call	_ZNKSt6vectorImSaImEE4sizeEv
	movq	%rax, -40(%rbp)
	movq	-56(%rbp), %rax
	movq	-32(%rbp), %rdx
	movq	%rdx, %rsi
	movq	%rax, %rdi
	call	_ZNSt12_Vector_baseImSaImEE11_M_allocateEm
.LEHE186:
	movq	%rax, -48(%rbp)
	movq	-48(%rbp), %rax
	movq	%rax, -24(%rbp)
	movq	-56(%rbp), %rax
	movq	%rax, %rdi
	call	_ZNSt12_Vector_baseImSaImEE19_M_get_Tp_allocatorEv
	movq	%rax, %rcx
	movq	-56(%rbp), %rax
	movq	8(%rax), %rsi
	movq	-56(%rbp), %rax
	movq	(%rax), %rax
	movq	-48(%rbp), %rdx
	movq	%rax, %rdi
.LEHB187:
	call	_ZSt34__uninitialized_move_if_noexcept_aIPmS0_SaImEET0_T_S3_S2_RT1_
	movq	%rax, -24(%rbp)
	movq	-56(%rbp), %rax
	movq	%rax, %rdi
	call	_ZNSt12_Vector_baseImSaImEE19_M_get_Tp_allocatorEv
	movq	%rax, %rdx
	movq	-64(%rbp), %rcx
	movq	-24(%rbp), %rax
	movq	%rcx, %rsi
	movq	%rax, %rdi
	call	_ZSt27__uninitialized_default_n_aIPmmmET_S1_T0_RSaIT1_E
.LEHE187:
	movq	%rax, -24(%rbp)
	movq	-56(%rbp), %rax
	movq	%rax, %rdi
	call	_ZNSt12_Vector_baseImSaImEE19_M_get_Tp_allocatorEv
	movq	%rax, %rdx
	movq	-56(%rbp), %rax
	movq	8(%rax), %rcx
	movq	-56(%rbp), %rax
	movq	(%rax), %rax
	movq	%rcx, %rsi
	movq	%rax, %rdi
.LEHB188:
	call	_ZSt8_DestroyIPmmEvT_S1_RSaIT0_E
	movq	-56(%rbp), %rax
	movq	-56(%rbp), %rdx
	movq	16(%rdx), %rdx
	movq	%rdx, %rcx
	movq	-56(%rbp), %rdx
	movq	(%rdx), %rdx
	subq	%rdx, %rcx
	movq	%rcx, %rdx
	sarq	$3, %rdx
	movq	%rdx, %rsi
	movq	-56(%rbp), %rdx
	movq	(%rdx), %rcx
	movq	%rsi, %rdx
	movq	%rcx, %rsi
	movq	%rax, %rdi
	call	_ZNSt12_Vector_baseImSaImEE13_M_deallocateEPmm
.LEHE188:
	movq	-56(%rbp), %rax
	movq	-48(%rbp), %rdx
	movq	%rdx, (%rax)
	movq	-56(%rbp), %rax
	movq	-24(%rbp), %rdx
	movq	%rdx, 8(%rax)
	movq	-32(%rbp), %rax
	leaq	0(,%rax,8), %rdx
	movq	-48(%rbp), %rax
	addq	%rax, %rdx
	movq	-56(%rbp), %rax
	movq	%rdx, 16(%rax)
	jmp	.L634
.L632:
	movq	%rax, %rdi
	call	__cxa_begin_catch@PLT
	movq	-56(%rbp), %rax
	movq	%rax, %rdi
	call	_ZNSt12_Vector_baseImSaImEE19_M_get_Tp_allocatorEv
	movq	%rax, %rdx
	movq	-24(%rbp), %rcx
	movq	-48(%rbp), %rax
	movq	%rcx, %rsi
	movq	%rax, %rdi
.LEHB189:
	call	_ZSt8_DestroyIPmmEvT_S1_RSaIT0_E
	movq	-56(%rbp), %rax
	movq	-32(%rbp), %rdx
	movq	-48(%rbp), %rcx
	movq	%rcx, %rsi
	movq	%rax, %rdi
	call	_ZNSt12_Vector_baseImSaImEE13_M_deallocateEPmm
	call	__cxa_rethrow@PLT
.LEHE189:
.L633:
	movq	%rax, %rbx
	call	__cxa_end_catch@PLT
	movq	%rbx, %rax
	movq	%rax, %rdi
.LEHB190:
	call	_Unwind_Resume@PLT
.LEHE190:
.L634:
	nop
	addq	$56, %rsp
	popq	%rbx
	popq	%rbp
	.cfi_def_cfa 7, 8
	ret
	.cfi_endproc
.LFE4105:
	.section	.gcc_except_table
	.align 4
.LLSDA4105:
	.byte	0xff
	.byte	0x9b
	.uleb128 .LLSDATT4105-.LLSDATTD4105
.LLSDATTD4105:
	.byte	0x1
	.uleb128 .LLSDACSE4105-.LLSDACSB4105
.LLSDACSB4105:
	.uleb128 .LEHB186-.LFB4105
	.uleb128 .LEHE186-.LEHB186
	.uleb128 0
	.uleb128 0
	.uleb128 .LEHB187-.LFB4105
	.uleb128 .LEHE187-.LEHB187
	.uleb128 .L632-.LFB4105
	.uleb128 0x1
	.uleb128 .LEHB188-.LFB4105
	.uleb128 .LEHE188-.LEHB188
	.uleb128 0
	.uleb128 0
	.uleb128 .LEHB189-.LFB4105
	.uleb128 .LEHE189-.LEHB189
	.uleb128 .L633-.LFB4105
	.uleb128 0
	.uleb128 .LEHB190-.LFB4105
	.uleb128 .LEHE190-.LEHB190
	.uleb128 0
	.uleb128 0
.LLSDACSE4105:
	.byte	0x1
	.byte	0
	.align 4
	.long	0

.LLSDATT4105:
	.section	.text._ZNSt6vectorImSaImEE17_M_default_appendEm,"axG",@progbits,_ZNSt6vectorImSaImEE17_M_default_appendEm,comdat
	.size	_ZNSt6vectorImSaImEE17_M_default_appendEm, .-_ZNSt6vectorImSaImEE17_M_default_appendEm
	.section	.text._ZNSt6vectorImSaImEE15_M_erase_at_endEPm,"axG",@progbits,_ZNSt6vectorImSaImEE15_M_erase_at_endEPm,comdat
	.align 2
	.weak	_ZNSt6vectorImSaImEE15_M_erase_at_endEPm
	.type	_ZNSt6vectorImSaImEE15_M_erase_at_endEPm, @function
_ZNSt6vectorImSaImEE15_M_erase_at_endEPm:
.LFB4106:
	.cfi_startproc
	.cfi_personality 0x9b,DW.ref.__gxx_personality_v0
	.cfi_lsda 0x1b,.LLSDA4106
	pushq	%rbp
	.cfi_def_cfa_offset 16
	.cfi_offset 6, -16
	movq	%rsp, %rbp
	.cfi_def_cfa_register 6
	subq	$16, %rsp
	movq	%rdi, -8(%rbp)
	movq	%rsi, -16(%rbp)
	movq	-8(%rbp), %rax
	movq	%rax, %rdi
	call	_ZNSt12_Vector_baseImSaImEE19_M_get_Tp_allocatorEv
	movq	%rax, %rdx
	movq	-8(%rbp), %rax
	movq	8(%rax), %rcx
	movq	-16(%rbp), %rax
	movq	%rcx, %rsi
	movq	%rax, %rdi
	call	_ZSt8_DestroyIPmmEvT_S1_RSaIT0_E
	movq	-8(%rbp), %rax
	movq	-16(%rbp), %rdx
	movq	%rdx, 8(%rax)
	nop
	leave
	.cfi_def_cfa 7, 8
	ret
	.cfi_endproc
.LFE4106:
	.section	.gcc_except_table
.LLSDA4106:
	.byte	0xff
	.byte	0xff
	.byte	0x1
	.uleb128 .LLSDACSE4106-.LLSDACSB4106
.LLSDACSB4106:
.LLSDACSE4106:
	.section	.text._ZNSt6vectorImSaImEE15_M_erase_at_endEPm,"axG",@progbits,_ZNSt6vectorImSaImEE15_M_erase_at_endEPm,comdat
	.size	_ZNSt6vectorImSaImEE15_M_erase_at_endEPm, .-_ZNSt6vectorImSaImEE15_M_erase_at_endEPm
	.section	.text._ZSt9make_pairImmESt4pairINSt17__decay_and_stripIT_E6__typeENS1_IT0_E6__typeEEOS2_OS5_,"axG",@progbits,_ZSt9make_pairImmESt4pairINSt17__decay_and_stripIT_E6__typeENS1_IT0_E6__typeEEOS2_OS5_,comdat
	.weak	_ZSt9make_pairImmESt4pairINSt17__decay_and_stripIT_E6__typeENS1_IT0_E6__typeEEOS2_OS5_
	.type	_ZSt9make_pairImmESt4pairINSt17__decay_and_stripIT_E6__typeENS1_IT0_E6__typeEEOS2_OS5_, @function
_ZSt9make_pairImmESt4pairINSt17__decay_and_stripIT_E6__typeENS1_IT0_E6__typeEEOS2_OS5_:
.LFB4107:
	.cfi_startproc
	pushq	%rbp
	.cfi_def_cfa_offset 16
	.cfi_offset 6, -16
	movq	%rsp, %rbp
	.cfi_def_cfa_register 6
	pushq	%rbx
	subq	$40, %rsp
	.cfi_offset 3, -24
	movq	%rdi, -40(%rbp)
	movq	%rsi, -48(%rbp)
	movq	-48(%rbp), %rax
	movq	%rax, %rdi
	call	_ZSt7forwardImEOT_RNSt16remove_referenceIS0_E4typeE
	movq	%rax, %rbx
	movq	-40(%rbp), %rax
	movq	%rax, %rdi
	call	_ZSt7forwardImEOT_RNSt16remove_referenceIS0_E4typeE
	movq	%rax, %rcx
	leaq	-32(%rbp), %rax
	movq	%rbx, %rdx
	movq	%rcx, %rsi
	movq	%rax, %rdi
	call	_ZNSt4pairImmEC1ImmLb1EEEOT_OT0_
	movq	-32(%rbp), %rax
	movq	-24(%rbp), %rdx
	addq	$40, %rsp
	popq	%rbx
	popq	%rbp
	.cfi_def_cfa 7, 8
	ret
	.cfi_endproc
.LFE4107:
	.size	_ZSt9make_pairImmESt4pairINSt17__decay_and_stripIT_E6__typeENS1_IT0_E6__typeEEOS2_OS5_, .-_ZSt9make_pairImmESt4pairINSt17__decay_and_stripIT_E6__typeENS1_IT0_E6__typeEEOS2_OS5_
	.section	.text._ZSt7forwardImEOT_RNSt16remove_referenceIS0_E4typeE,"axG",@progbits,_ZSt7forwardImEOT_RNSt16remove_referenceIS0_E4typeE,comdat
	.weak	_ZSt7forwardImEOT_RNSt16remove_referenceIS0_E4typeE
	.type	_ZSt7forwardImEOT_RNSt16remove_referenceIS0_E4typeE, @function
_ZSt7forwardImEOT_RNSt16remove_referenceIS0_E4typeE:
.LFB4121:
	.cfi_startproc
	pushq	%rbp
	.cfi_def_cfa_offset 16
	.cfi_offset 6, -16
	movq	%rsp, %rbp
	.cfi_def_cfa_register 6
	movq	%rdi, -8(%rbp)
	movq	-8(%rbp), %rax
	popq	%rbp
	.cfi_def_cfa 7, 8
	ret
	.cfi_endproc
.LFE4121:
	.size	_ZSt7forwardImEOT_RNSt16remove_referenceIS0_E4typeE, .-_ZSt7forwardImEOT_RNSt16remove_referenceIS0_E4typeE
	.section	.text._ZNSt4pairIiiEC2ImmLb1EEEOS_IT_T0_E,"axG",@progbits,_ZNSt4pairIiiEC5ImmLb1EEEOS_IT_T0_E,comdat
	.align 2
	.weak	_ZNSt4pairIiiEC2ImmLb1EEEOS_IT_T0_E
	.type	_ZNSt4pairIiiEC2ImmLb1EEEOS_IT_T0_E, @function
_ZNSt4pairIiiEC2ImmLb1EEEOS_IT_T0_E:
.LFB4122:
	.cfi_startproc
	pushq	%rbp
	.cfi_def_cfa_offset 16
	.cfi_offset 6, -16
	movq	%rsp, %rbp
	.cfi_def_cfa_register 6
	subq	$16, %rsp
	movq	%rdi, -8(%rbp)
	movq	%rsi, -16(%rbp)
	movq	-16(%rbp), %rax
	movq	%rax, %rdi
	call	_ZSt7forwardImEOT_RNSt16remove_referenceIS0_E4typeE
	movq	(%rax), %rax
	movl	%eax, %edx
	movq	-8(%rbp), %rax
	movl	%edx, (%rax)
	movq	-16(%rbp), %rax
	addq	$8, %rax
	movq	%rax, %rdi
	call	_ZSt7forwardImEOT_RNSt16remove_referenceIS0_E4typeE
	movq	(%rax), %rax
	movl	%eax, %edx
	movq	-8(%rbp), %rax
	movl	%edx, 4(%rax)
	nop
	leave
	.cfi_def_cfa 7, 8
	ret
	.cfi_endproc
.LFE4122:
	.size	_ZNSt4pairIiiEC2ImmLb1EEEOS_IT_T0_E, .-_ZNSt4pairIiiEC2ImmLb1EEEOS_IT_T0_E
	.weak	_ZNSt4pairIiiEC1ImmLb1EEEOS_IT_T0_E
	.set	_ZNSt4pairIiiEC1ImmLb1EEEOS_IT_T0_E,_ZNSt4pairIiiEC2ImmLb1EEEOS_IT_T0_E
	.section	.rodata
.LC40:
	.string	"Neispravan indeks retka! - "
	.section	.text._Z11check_indexIdEvRK7MatricaIT_Ei,"axG",@progbits,_Z11check_indexIdEvRK7MatricaIT_Ei,comdat
	.weak	_Z11check_indexIdEvRK7MatricaIT_Ei
	.type	_Z11check_indexIdEvRK7MatricaIT_Ei, @function
_Z11check_indexIdEvRK7MatricaIT_Ei:
.LFB4124:
	.cfi_startproc
	.cfi_personality 0x9b,DW.ref.__gxx_personality_v0
	.cfi_lsda 0x1b,.LLSDA4124
	pushq	%rbp
	.cfi_def_cfa_offset 16
	.cfi_offset 6, -16
	movq	%rsp, %rbp
	.cfi_def_cfa_register 6
	pushq	%r12
	pushq	%rbx
	subq	$64, %rsp
	.cfi_offset 12, -24
	.cfi_offset 3, -32
	movq	%rdi, -72(%rbp)
	movl	%esi, -76(%rbp)
	movq	-72(%rbp), %rax
	movq	%rax, %rdi
.LEHB191:
	call	_ZNK7MatricaIdE3dimEv
.LEHE191:
	movl	%eax, -20(%rbp)
	cmpl	$0, -76(%rbp)
	js	.L642
	movl	-76(%rbp), %eax
	cmpl	-20(%rbp), %eax
	jl	.L648
.L642:
	movl	$40, %edi
	call	__cxa_allocate_exception@PLT
	movq	%rax, %rbx
	leaq	-21(%rbp), %rax
	movq	%rax, %rdi
	call	_ZNSaIcEC1Ev@PLT
	movl	-76(%rbp), %eax
	movslq	%eax, %rdx
	leaq	.LC40(%rip), %rax
	leaq	(%rdx,%rax), %rcx
	leaq	-21(%rbp), %rdx
	leaq	-64(%rbp), %rax
	movq	%rcx, %rsi
	movq	%rax, %rdi
.LEHB192:
	call	_ZNSt7__cxx1112basic_stringIcSt11char_traitsIcESaIcEEC1EPKcRKS3_@PLT
.LEHE192:
	leaq	-64(%rbp), %rax
	movq	%rax, %rsi
	movq	%rbx, %rdi
.LEHB193:
	call	_ZN17Matrica_exceptionC1ENSt7__cxx1112basic_stringIcSt11char_traitsIcESaIcEEE
.LEHE193:
	leaq	-64(%rbp), %rax
	movq	%rax, %rdi
	call	_ZNSt7__cxx1112basic_stringIcSt11char_traitsIcESaIcEED1Ev@PLT
	leaq	-21(%rbp), %rax
	movq	%rax, %rdi
	call	_ZNSaIcED1Ev@PLT
	leaq	_ZN17Matrica_exceptionD1Ev(%rip), %rdx
	leaq	_ZTI17Matrica_exception(%rip), %rsi
	movq	%rbx, %rdi
.LEHB194:
	call	__cxa_throw@PLT
.L647:
	movq	%rax, %r12
	leaq	-64(%rbp), %rax
	movq	%rax, %rdi
	call	_ZNSt7__cxx1112basic_stringIcSt11char_traitsIcESaIcEED1Ev@PLT
	jmp	.L645
.L646:
	movq	%rax, %r12
.L645:
	leaq	-21(%rbp), %rax
	movq	%rax, %rdi
	call	_ZNSaIcED1Ev@PLT
	movq	%rbx, %rdi
	call	__cxa_free_exception@PLT
	movq	%r12, %rax
	movq	%rax, %rdi
	call	_Unwind_Resume@PLT
.LEHE194:
.L648:
	nop
	addq	$64, %rsp
	popq	%rbx
	popq	%r12
	popq	%rbp
	.cfi_def_cfa 7, 8
	ret
	.cfi_endproc
.LFE4124:
	.section	.gcc_except_table
.LLSDA4124:
	.byte	0xff
	.byte	0xff
	.byte	0x1
	.uleb128 .LLSDACSE4124-.LLSDACSB4124
.LLSDACSB4124:
	.uleb128 .LEHB191-.LFB4124
	.uleb128 .LEHE191-.LEHB191
	.uleb128 0
	.uleb128 0
	.uleb128 .LEHB192-.LFB4124
	.uleb128 .LEHE192-.LEHB192
	.uleb128 .L646-.LFB4124
	.uleb128 0
	.uleb128 .LEHB193-.LFB4124
	.uleb128 .LEHE193-.LEHB193
	.uleb128 .L647-.LFB4124
	.uleb128 0
	.uleb128 .LEHB194-.LFB4124
	.uleb128 .LEHE194-.LEHB194
	.uleb128 0
	.uleb128 0
.LLSDACSE4124:
	.section	.text._Z11check_indexIdEvRK7MatricaIT_Ei,"axG",@progbits,_Z11check_indexIdEvRK7MatricaIT_Ei,comdat
	.size	_Z11check_indexIdEvRK7MatricaIT_Ei, .-_Z11check_indexIdEvRK7MatricaIT_Ei
	.section	.text._ZNKSt6vectorImSaImEEixEm,"axG",@progbits,_ZNKSt6vectorImSaImEEixEm,comdat
	.align 2
	.weak	_ZNKSt6vectorImSaImEEixEm
	.type	_ZNKSt6vectorImSaImEEixEm, @function
_ZNKSt6vectorImSaImEEixEm:
.LFB4125:
	.cfi_startproc
	pushq	%rbp
	.cfi_def_cfa_offset 16
	.cfi_offset 6, -16
	movq	%rsp, %rbp
	.cfi_def_cfa_register 6
	movq	%rdi, -8(%rbp)
	movq	%rsi, -16(%rbp)
	movq	-8(%rbp), %rax
	movq	(%rax), %rax
	movq	-16(%rbp), %rdx
	salq	$3, %rdx
	addq	%rdx, %rax
	popq	%rbp
	.cfi_def_cfa 7, 8
	ret
	.cfi_endproc
.LFE4125:
	.size	_ZNKSt6vectorImSaImEEixEm, .-_ZNKSt6vectorImSaImEEixEm
	.section	.text._ZNSt6vectorIdSaIdEE6resizeEm,"axG",@progbits,_ZNSt6vectorIdSaIdEE6resizeEm,comdat
	.align 2
	.weak	_ZNSt6vectorIdSaIdEE6resizeEm
	.type	_ZNSt6vectorIdSaIdEE6resizeEm, @function
_ZNSt6vectorIdSaIdEE6resizeEm:
.LFB4126:
	.cfi_startproc
	pushq	%rbp
	.cfi_def_cfa_offset 16
	.cfi_offset 6, -16
	movq	%rsp, %rbp
	.cfi_def_cfa_register 6
	subq	$16, %rsp
	movq	%rdi, -8(%rbp)
	movq	%rsi, -16(%rbp)
	movq	-8(%rbp), %rax
	movq	%rax, %rdi
	call	_ZNKSt6vectorIdSaIdEE4sizeEv
	cmpq	%rax, -16(%rbp)
	seta	%al
	testb	%al, %al
	je	.L652
	movq	-8(%rbp), %rax
	movq	%rax, %rdi
	call	_ZNKSt6vectorIdSaIdEE4sizeEv
	movq	%rax, %rdx
	movq	-16(%rbp), %rax
	subq	%rdx, %rax
	movq	%rax, %rdx
	movq	-8(%rbp), %rax
	movq	%rdx, %rsi
	movq	%rax, %rdi
	call	_ZNSt6vectorIdSaIdEE17_M_default_appendEm
	jmp	.L654
.L652:
	movq	-8(%rbp), %rax
	movq	%rax, %rdi
	call	_ZNKSt6vectorIdSaIdEE4sizeEv
	cmpq	%rax, -16(%rbp)
	setb	%al
	testb	%al, %al
	je	.L654
	movq	-8(%rbp), %rax
	movq	(%rax), %rax
	movq	-16(%rbp), %rdx
	salq	$3, %rdx
	addq	%rax, %rdx
	movq	-8(%rbp), %rax
	movq	%rdx, %rsi
	movq	%rax, %rdi
	call	_ZNSt6vectorIdSaIdEE15_M_erase_at_endEPd
.L654:
	nop
	leave
	.cfi_def_cfa 7, 8
	ret
	.cfi_endproc
.LFE4126:
	.size	_ZNSt6vectorIdSaIdEE6resizeEm, .-_ZNSt6vectorIdSaIdEE6resizeEm
	.section	.text._ZN9__gnu_cxx14__alloc_traitsISaISt6vectorIdSaIdEEEE17_S_select_on_copyERKS4_,"axG",@progbits,_ZN9__gnu_cxx14__alloc_traitsISaISt6vectorIdSaIdEEEE17_S_select_on_copyERKS4_,comdat
	.weak	_ZN9__gnu_cxx14__alloc_traitsISaISt6vectorIdSaIdEEEE17_S_select_on_copyERKS4_
	.type	_ZN9__gnu_cxx14__alloc_traitsISaISt6vectorIdSaIdEEEE17_S_select_on_copyERKS4_, @function
_ZN9__gnu_cxx14__alloc_traitsISaISt6vectorIdSaIdEEEE17_S_select_on_copyERKS4_:
.LFB4127:
	.cfi_startproc
	pushq	%rbp
	.cfi_def_cfa_offset 16
	.cfi_offset 6, -16
	movq	%rsp, %rbp
	.cfi_def_cfa_register 6
	subq	$16, %rsp
	movq	%rdi, -8(%rbp)
	movq	%rsi, -16(%rbp)
	movq	-8(%rbp), %rax
	movq	-16(%rbp), %rdx
	movq	%rdx, %rsi
	movq	%rax, %rdi
	call	_ZNSt16allocator_traitsISaISt6vectorIdSaIdEEEE37select_on_container_copy_constructionERKS3_
	movq	-8(%rbp), %rax
	leave
	.cfi_def_cfa 7, 8
	ret
	.cfi_endproc
.LFE4127:
	.size	_ZN9__gnu_cxx14__alloc_traitsISaISt6vectorIdSaIdEEEE17_S_select_on_copyERKS4_, .-_ZN9__gnu_cxx14__alloc_traitsISaISt6vectorIdSaIdEEEE17_S_select_on_copyERKS4_
	.section	.text._ZNKSt12_Vector_baseISt6vectorIdSaIdEESaIS2_EE19_M_get_Tp_allocatorEv,"axG",@progbits,_ZNKSt12_Vector_baseISt6vectorIdSaIdEESaIS2_EE19_M_get_Tp_allocatorEv,comdat
	.align 2
	.weak	_ZNKSt12_Vector_baseISt6vectorIdSaIdEESaIS2_EE19_M_get_Tp_allocatorEv
	.type	_ZNKSt12_Vector_baseISt6vectorIdSaIdEESaIS2_EE19_M_get_Tp_allocatorEv, @function
_ZNKSt12_Vector_baseISt6vectorIdSaIdEESaIS2_EE19_M_get_Tp_allocatorEv:
.LFB4128:
	.cfi_startproc
	pushq	%rbp
	.cfi_def_cfa_offset 16
	.cfi_offset 6, -16
	movq	%rsp, %rbp
	.cfi_def_cfa_register 6
	movq	%rdi, -8(%rbp)
	movq	-8(%rbp), %rax
	popq	%rbp
	.cfi_def_cfa 7, 8
	ret
	.cfi_endproc
.LFE4128:
	.size	_ZNKSt12_Vector_baseISt6vectorIdSaIdEESaIS2_EE19_M_get_Tp_allocatorEv, .-_ZNKSt12_Vector_baseISt6vectorIdSaIdEESaIS2_EE19_M_get_Tp_allocatorEv
	.section	.text._ZNSt12_Vector_baseISt6vectorIdSaIdEESaIS2_EEC2EmRKS3_,"axG",@progbits,_ZNSt12_Vector_baseISt6vectorIdSaIdEESaIS2_EEC5EmRKS3_,comdat
	.align 2
	.weak	_ZNSt12_Vector_baseISt6vectorIdSaIdEESaIS2_EEC2EmRKS3_
	.type	_ZNSt12_Vector_baseISt6vectorIdSaIdEESaIS2_EEC2EmRKS3_, @function
_ZNSt12_Vector_baseISt6vectorIdSaIdEESaIS2_EEC2EmRKS3_:
.LFB4130:
	.cfi_startproc
	.cfi_personality 0x9b,DW.ref.__gxx_personality_v0
	.cfi_lsda 0x1b,.LLSDA4130
	pushq	%rbp
	.cfi_def_cfa_offset 16
	.cfi_offset 6, -16
	movq	%rsp, %rbp
	.cfi_def_cfa_register 6
	pushq	%rbx
	subq	$40, %rsp
	.cfi_offset 3, -24
	movq	%rdi, -24(%rbp)
	movq	%rsi, -32(%rbp)
	movq	%rdx, -40(%rbp)
	movq	-24(%rbp), %rax
	movq	-40(%rbp), %rdx
	movq	%rdx, %rsi
	movq	%rax, %rdi
	call	_ZNSt12_Vector_baseISt6vectorIdSaIdEESaIS2_EE12_Vector_implC1ERKS3_
	movq	-32(%rbp), %rdx
	movq	-24(%rbp), %rax
	movq	%rdx, %rsi
	movq	%rax, %rdi
.LEHB195:
	call	_ZNSt12_Vector_baseISt6vectorIdSaIdEESaIS2_EE17_M_create_storageEm
.LEHE195:
	jmp	.L662
.L661:
	movq	%rax, %rbx
	movq	-24(%rbp), %rax
	movq	%rax, %rdi
	call	_ZNSt12_Vector_baseISt6vectorIdSaIdEESaIS2_EE12_Vector_implD1Ev
	movq	%rbx, %rax
	movq	%rax, %rdi
.LEHB196:
	call	_Unwind_Resume@PLT
.LEHE196:
.L662:
	addq	$40, %rsp
	popq	%rbx
	popq	%rbp
	.cfi_def_cfa 7, 8
	ret
	.cfi_endproc
.LFE4130:
	.section	.gcc_except_table
.LLSDA4130:
	.byte	0xff
	.byte	0xff
	.byte	0x1
	.uleb128 .LLSDACSE4130-.LLSDACSB4130
.LLSDACSB4130:
	.uleb128 .LEHB195-.LFB4130
	.uleb128 .LEHE195-.LEHB195
	.uleb128 .L661-.LFB4130
	.uleb128 0
	.uleb128 .LEHB196-.LFB4130
	.uleb128 .LEHE196-.LEHB196
	.uleb128 0
	.uleb128 0
.LLSDACSE4130:
	.section	.text._ZNSt12_Vector_baseISt6vectorIdSaIdEESaIS2_EEC2EmRKS3_,"axG",@progbits,_ZNSt12_Vector_baseISt6vectorIdSaIdEESaIS2_EEC5EmRKS3_,comdat
